

Microchip MPLAB XC8 Assembler V2.10 build 88905656 
                                                                                               Mon Dec 02 13:13:53 2019

Microchip MPLAB XC8 C Compiler v2.10 (Free license) build 20190730164152 Og1 
     1                           	processor	18F8722
     2                           	fnconf	rparam,??,?,0
     3                           	opt	pw 120
     4                           	opt	flic
     5                           	psect	idataBANK0,global,class=CODE,delta=1,noexec
     6                           	psect	nvBANK0,global,class=BANK0,space=1,delta=1,lowdata,noexec
     7                           	psect	smallconst,global,reloc=2,class=SMALLCONST,delta=1,noexec
     8                           	psect	cinit,global,reloc=2,class=CODE,delta=1
     9                           	psect	bssCOMRAM,global,class=COMRAM,space=1,delta=1,noexec
    10                           	psect	bssBANK0,global,class=BANK0,space=1,delta=1,lowdata,noexec
    11                           	psect	dataBANK0,global,class=BANK0,space=1,delta=1,lowdata,noexec
    12                           	psect	cstackBANK0,global,class=BANK0,space=1,delta=1,noexec
    13                           	psect	cstackCOMRAM,global,class=COMRAM,space=1,delta=1,noexec
    14                           	psect	text0,global,reloc=2,class=CODE,delta=1
    15                           	psect	text1,global,reloc=2,class=CODE,delta=1
    16                           	psect	text2,global,reloc=2,class=CODE,delta=1
    17                           	psect	text3,global,reloc=2,class=CODE,delta=1
    18                           	psect	text4,global,reloc=2,class=CODE,delta=1
    19                           	psect	text5,global,reloc=2,class=CODE,delta=1
    20                           	psect	text6,global,reloc=2,class=CODE,delta=1
    21                           	psect	text7,global,reloc=2,class=CODE,delta=1
    22                           	psect	text8,global,reloc=2,class=CODE,delta=1
    23                           	psect	text9,global,reloc=2,class=CODE,delta=1
    24                           	psect	text10,global,reloc=2,class=CODE,delta=1
    25                           	psect	text11,global,reloc=2,class=CODE,delta=1
    26                           	psect	intcode,global,reloc=2,class=CODE,delta=1
    27                           	psect	intcode_body,global,reloc=2,class=CODE,delta=1
    28                           	psect	text13,global,reloc=2,class=CODE,delta=1
    29                           	psect	text14,global,reloc=2,class=CODE,delta=1
    30                           	psect	text15,global,reloc=2,class=CODE,delta=1
    31                           	psect	text16,global,reloc=2,class=CODE,delta=1
    32                           	psect	text17,global,reloc=2,class=CODE,delta=1
    33                           	psect	text18,global,reloc=2,class=CODE,delta=1
    34                           	psect	text19,global,reloc=2,class=CODE,delta=1
    35                           	psect	text20,global,reloc=2,class=CODE,delta=1
    36                           	psect	text21,global,reloc=2,class=CODE,delta=1
    37                           	psect	text22,global,reloc=2,class=CODE,delta=1
    38                           	psect	text23,global,reloc=2,class=CODE,delta=1
    39                           	psect	text24,global,reloc=2,class=CODE,delta=1
    40                           	psect	text25,global,reloc=2,class=CODE,delta=1,group=2
    41                           	psect	text26,global,reloc=2,class=CODE,delta=1
    42                           	psect	text27,global,reloc=2,class=CODE,delta=1
    43                           	psect	text28,global,reloc=2,class=CODE,delta=1
    44                           	psect	text29,global,reloc=2,class=CODE,delta=1
    45                           	psect	text30,global,reloc=2,class=CODE,delta=1,group=2
    46                           	psect	text31,global,reloc=2,class=CODE,delta=1,group=2
    47                           	psect	text32,global,reloc=2,class=CODE,delta=1,group=2
    48                           	psect	text33,global,reloc=2,class=CODE,delta=1,group=2
    49                           	psect	text34,global,reloc=2,class=CODE,delta=1,group=2
    50                           	psect	text35,global,reloc=2,class=CODE,delta=1,group=1
    51                           	psect	text36,global,reloc=2,class=CODE,delta=1,group=1
    52                           	psect	text37,global,reloc=2,class=CODE,delta=1
    53                           	psect	text38,global,reloc=2,class=CODE,delta=1
    54                           	psect	text39,global,reloc=2,class=CODE,delta=1
    55                           	psect	text40,global,reloc=2,class=CODE,delta=1
    56                           	psect	text41,global,reloc=2,class=CODE,delta=1
    57                           	psect	intsave_regs,global,class=BIGRAM,space=1,delta=1,noexec
    58                           	psect	rparam,global,class=COMRAM,space=1,delta=1,noexec
    59                           	psect	temp,global,ovrld,common,class=COMRAM,space=1,delta=1
    60  0000                     
    61                           ; Version 2.10
    62                           ; Generated 31/07/2019 GMT
    63                           ; 
    64                           ; Copyright © 2019, Microchip Technology Inc. and its subsidiaries ("Microchip")
    65                           ; All rights reserved.
    66                           ; 
    67                           ; This software is developed by Microchip Technology Inc. and its subsidiaries ("Microch
      +                          ip").
    68                           ; 
    69                           ; Redistribution and use in source and binary forms, with or without modification, are
    70                           ; permitted provided that the following conditions are met:
    71                           ; 
    72                           ;     1. Redistributions of source code must retain the above copyright notice, this lis
      +                          t of
    73                           ;        conditions and the following disclaimer.
    74                           ; 
    75                           ;     2. Redistributions in binary form must reproduce the above copyright notice, this 
      +                          list
    76                           ;        of conditions and the following disclaimer in the documentation and/or other
    77                           ;        materials provided with the distribution.
    78                           ; 
    79                           ;     3. Microchip's name may not be used to endorse or promote products derived from th
      +                          is
    80                           ;        software without specific prior written permission.
    81                           ; 
    82                           ; THIS SOFTWARE IS PROVIDED BY MICROCHIP "AS IS" AND ANY EXPRESS OR IMPLIED WARRANTIES,
    83                           ; INCLUDING, BUT NOT LIMITED TO, THE IMPLIED WARRANTIES OF MERCHANTABILITY AND FITNESS F
      +                          OR
    84                           ; PURPOSE ARE DISCLAIMED.  IN NO EVENT SHALL MICROCHIP BE LIABLE FOR ANY DIRECT, INDIREC
      +                          T,
    85                           ; INCIDENTAL, SPECIAL, EXEMPLARY, OR CONSEQUENTIAL DAMAGES (INCLUDING BUT NOT LIMITED TO
    86                           ; PROCUREMENT OF SUBSTITUTE GOODS OR SERVICES; LOSS OF USE, DATA OR PROFITS; OR BUSINESS
    87                           ; INTERRUPTION) HOWSOEVER CAUSED AND ON ANY THEORY OF LIABILITY, WHETHER IN CONTRACT, ST
      +                          RICT
    88                           ; LIABILITY, OR TORT (INCLUDING NEGLIGENCE OR OTHERWISE) ARISING IN ANY WAY OUT OF THE U
      +                          SE OF
    89                           ; THIS SOFTWARE, EVEN IF ADVISED OF THE POSSIBILITY OF SUCH DAMAGE.
    90                           ; 
    91                           ; 
    92                           ; Code-generator required, PIC18F8722 Definitions
    93                           ; 
    94                           ; SFR Addresses
    95  0000                     
    96                           	psect	idataBANK0
    97  002488                     __pidataBANK0:
    98                           	opt callstack 0
    99                           
   100                           ;initializer for _defined_hum
   101  002488  005F               	dw	95
   102                           
   103                           ;initializer for _defined_temp
   104  00248A  0019               	dw	25
   105                           
   106                           	psect	nvBANK0
   107  0000C7                     __pnvBANK0:
   108                           	opt callstack 0
   109  0000C7                     _timer0ReloadVal:
   110                           	opt callstack 0
   111  0000C7                     	ds	2
   112  0000                     _TMR0	set	4054
   113  0000                     _PORTCbits	set	3970
   114  0000                     _LATCbits	set	3979
   115  0000                     _LATAbits	set	3977
   116  0000                     _TRISCbits	set	3988
   117  0000                     _LATFbits	set	3982
   118  0000                     _TRISFbits	set	3991
   119  0000                     _PORTAbits	set	3968
   120  0000                     _PORTBbits	set	3969
   121  0000                     _T0CONbits	set	4053
   122  0000                     _INTCONbits	set	4082
   123  0000                     _TMR0L	set	4054
   124  0000                     _TMR0H	set	4055
   125  0000                     _T0CON	set	4053
   126  0000                     _INTCON2bits	set	4081
   127  0000                     _RCONbits	set	4048
   128  0000                     _OSCTUNE	set	3995
   129  0000                     _OSCCON	set	4051
   130  0000                     _ADCON1	set	4033
   131  0000                     _TRISAbits	set	3986
   132  0000                     _TRISBbits	set	3987
   133  0000                     _LATD	set	3980
   134  0000                     _TRISD	set	3989
   135  0000                     _LATC0	set	31832
   136                           
   137                           	psect	smallconst
   138  001000                     __psmallconst:
   139                           	opt callstack 0
   140  001000  00                 	db	0
   141  001001                     STR_1:
   142  001001  53                 	db	83	;'S'
   143  001002  65                 	db	101	;'e'
   144  001003  74                 	db	116	;'t'
   145  001004  20                 	db	32
   146  001005  54                 	db	84	;'T'
   147  001006  65                 	db	101	;'e'
   148  001007  6D                 	db	109	;'m'
   149  001008  70                 	db	112	;'p'
   150  001009  3A                 	db	58	;':'
   151  00100A  20                 	db	32
   152  00100B  00                 	db	0
   153  00100C                     STR_3:
   154  00100C  53                 	db	83	;'S'
   155  00100D  65                 	db	101	;'e'
   156  00100E  74                 	db	116	;'t'
   157  00100F  20                 	db	32
   158  001010  48                 	db	72	;'H'
   159  001011  75                 	db	117	;'u'
   160  001012  6D                 	db	109	;'m'
   161  001013  3A                 	db	58	;':'
   162  001014  20                 	db	32
   163  001015  00                 	db	0
   164  001016                     STR_2:
   165  001016  25                 	db	37
   166  001017  64                 	db	100	;'d'
   167  001018  00                 	db	0
   168  0000                     
   169                           ; #config settings
   170  001019  00                 	db	0	; dummy byte at the end
   171  0000                     
   172                           	psect	cinit
   173  0022CE                     __pcinit:
   174                           	opt callstack 0
   175  0022CE                     start_initialization:
   176                           	opt callstack 0
   177  0022CE                     __initialization:
   178                           	opt callstack 0
   179                           
   180                           ; Initialize objects allocated to BANK0 (4 bytes)
   181                           ; load TBLPTR registers with __pidataBANK0
   182  0022CE  0E88               	movlw	low __pidataBANK0
   183  0022D0  6EF6               	movwf	tblptrl,c
   184  0022D2  0E24               	movlw	high __pidataBANK0
   185  0022D4  6EF7               	movwf	tblptrh,c
   186  0022D6  0E00               	movlw	low (__pidataBANK0 shr (0+16))
   187  0022D8  6EF8               	movwf	tblptru,c
   188  0022DA  EE00  F0C3         	lfsr	0,__pdataBANK0
   189  0022DE  EE10 F004          	lfsr	1,4
   190  0022E2                     copy_data0:
   191  0022E2  0009               	tblrd		*+
   192  0022E4  CFF5 FFEE          	movff	tablat,postinc0
   193  0022E8  50E5               	movf	postdec1,w,c
   194  0022EA  50E1               	movf	fsr1l,w,c
   195  0022EC  E1FA               	bnz	copy_data0
   196                           
   197                           ; Clear objects allocated to BANK0 (71 bytes)
   198  0022EE  EE00  F060         	lfsr	0,__pbssBANK0
   199  0022F2  0E47               	movlw	71
   200  0022F4                     clear_0:
   201  0022F4  6AEE               	clrf	postinc0,c
   202  0022F6  06E8               	decf	wreg,f,c
   203  0022F8  E1FD               	bnz	clear_0
   204                           
   205                           ; Clear objects allocated to COMRAM (1 bytes)
   206  0022FA  6A5E               	clrf	__pbssCOMRAM& (0+255),c
   207  0022FC                     end_of_initialization:
   208                           	opt callstack 0
   209  0022FC                     __end_of__initialization:
   210                           	opt callstack 0
   211  0022FC  905F               	bcf	int$flags,0,c	;clear compiler interrupt flag (level 1)
   212  0022FE  925F               	bcf	int$flags,1,c	;clear compiler interrupt flag (level 2)
   213  002300  0100               	movlb	0
   214  002302  EF17  F012         	goto	_main	;jump to C main() function
   215                           
   216                           	psect	bssCOMRAM
   217  00005E                     __pbssCOMRAM:
   218                           	opt callstack 0
   219  00005E                     _current_state:
   220                           	opt callstack 0
   221  00005E                     	ds	1
   222                           
   223                           	psect	bssBANK0
   224  000060                     __pbssBANK0:
   225                           	opt callstack 0
   226  000060                     _nout:
   227                           	opt callstack 0
   228  000060                     	ds	2
   229  000062                     _width:
   230                           	opt callstack 0
   231  000062                     	ds	2
   232  000064                     _prec:
   233                           	opt callstack 0
   234  000064                     	ds	2
   235  000066                     _flags:
   236                           	opt callstack 0
   237  000066                     	ds	2
   238  000068                     _count_1_sec:
   239                           	opt callstack 0
   240  000068                     	ds	2
   241  00006A                     _timeout_heatpump:
   242                           	opt callstack 0
   243  00006A                     	ds	2
   244  00006C                     _time_out_fan1:
   245                           	opt callstack 0
   246  00006C                     	ds	2
   247  00006E                     _time_out_heater:
   248                           	opt callstack 0
   249  00006E                     	ds	2
   250  000070                     _count_2_sec:
   251                           	opt callstack 0
   252  000070                     	ds	2
   253  000072                     _Checksum:
   254                           	opt callstack 0
   255  000072                     	ds	1
   256  000073                     _T_Integral:
   257                           	opt callstack 0
   258  000073                     	ds	1
   259  000074                     _T_Decimal:
   260                           	opt callstack 0
   261  000074                     	ds	1
   262  000075                     _RH_Integral:
   263                           	opt callstack 0
   264  000075                     	ds	1
   265  000076                     _RH_Decimal:
   266                           	opt callstack 0
   267  000076                     	ds	1
   268  000077                     _MY_FSM:
   269                           	opt callstack 0
   270  000077                     	ds	1
   271  000078                     _flag_RA5:
   272                           	opt callstack 0
   273  000078                     	ds	1
   274  000079                     _flag_RB0:
   275                           	opt callstack 0
   276  000079                     	ds	1
   277  00007A                     _dbuf:
   278                           	opt callstack 0
   279  00007A                     	ds	32
   280  00009A                     _value:
   281                           	opt callstack 0
   282  00009A                     	ds	10
   283  0000A4                     _defined_value_arr:
   284                           	opt callstack 0
   285  0000A4                     	ds	3
   286                           
   287                           	psect	dataBANK0
   288  0000C3                     __pdataBANK0:
   289                           	opt callstack 0
   290  0000C3                     _defined_hum:
   291                           	opt callstack 0
   292  0000C3                     	ds	2
   293  0000C5                     _defined_temp:
   294                           	opt callstack 0
   295  0000C5                     	ds	2
   296                           
   297                           	psect	cstackBANK0
   298  0000A7                     __pcstackBANK0:
   299                           	opt callstack 0
   300  0000A7                     	ds	2
   301  0000A9                     sprintf@ap:
   302                           	opt callstack 0
   303                           
   304                           ; 2 bytes @ 0x2
   305  0000A9                     	ds	2
   306  0000AB                     sprintf@f:
   307                           	opt callstack 0
   308                           
   309                           ; 6 bytes @ 0x4
   310  0000AB                     	ds	6
   311  0000B1                     ??_FSM:
   312                           
   313                           ; 1 bytes @ 0xA
   314  0000B1                     	ds	2
   315  0000B3                     ??_function_interrupt_TMR0:
   316                           
   317                           ; 1 bytes @ 0xC
   318  0000B3                     	ds	8
   319  0000BB                     SendByteBBSPI@output:
   320                           	opt callstack 0
   321                           
   322                           ; 1 bytes @ 0x14
   323  0000BB                     	ds	1
   324  0000BC                     SendByteBBSPI@bitcount:
   325                           	opt callstack 0
   326                           
   327                           ; 1 bytes @ 0x15
   328  0000BC                     	ds	1
   329  0000BD                     SendByteBBSPI@input:
   330                           	opt callstack 0
   331                           
   332                           ; 1 bytes @ 0x16
   333  0000BD                     	ds	1
   334  0000BE                     Port_BBSPIInit@port_dir:
   335                           	opt callstack 0
   336  0000BE                     WritePort_BBSPI@a:
   337                           	opt callstack 0
   338                           
   339                           ; 1 bytes @ 0x17
   340  0000BE                     	ds	1
   341  0000BF                     WritePort_BBSPI@port_add:
   342                           	opt callstack 0
   343                           
   344                           ; 1 bytes @ 0x18
   345  0000BF                     	ds	1
   346  0000C0                     ??_LCDPutInst:
   347                           
   348                           ; 1 bytes @ 0x19
   349  0000C0                     	ds	1
   350  0000C1                     LCDPutInst@ch:
   351                           	opt callstack 0
   352                           
   353                           ; 1 bytes @ 0x1A
   354  0000C1                     	ds	1
   355  0000C2                     ??_LCDInit:
   356                           
   357                           ; 1 bytes @ 0x1B
   358  0000C2                     	ds	1
   359  0000C3                     
   360                           ; 1 bytes @ 0x1C
   361                           
   362                           	psect	cstackCOMRAM
   363  000001                     __pcstackCOMRAM:
   364                           	opt callstack 0
   365  000001                     ??_DHT11_Start:
   366  000001                     ?_strlen:
   367                           	opt callstack 0
   368  000001                     ?_check_but_RB0:
   369                           	opt callstack 0
   370  000001                     ?_check_but_RA5:
   371                           	opt callstack 0
   372  000001                     ?___aodiv:
   373                           	opt callstack 0
   374  000001                     ?___aomod:
   375                           	opt callstack 0
   376  000001                     DHT11_ReadData@i:
   377                           	opt callstack 0
   378  000001                     i2SendByteBBSPI@output:
   379                           	opt callstack 0
   380  000001                     fputc@c:
   381                           	opt callstack 0
   382  000001                     strlen@s:
   383                           	opt callstack 0
   384  000001                     ___aodiv@dividend:
   385                           	opt callstack 0
   386  000001                     ___aomod@dividend:
   387                           	opt callstack 0
   388                           
   389                           ; 8 bytes @ 0x0
   390  000001                     	ds	1
   391  000002                     DHT11_ReadData@data_dht:
   392                           	opt callstack 0
   393  000002                     i2SendByteBBSPI@bitcount:
   394                           	opt callstack 0
   395                           
   396                           ; 1 bytes @ 0x1
   397  000002                     	ds	1
   398  000003                     i2SendByteBBSPI@input:
   399                           	opt callstack 0
   400  000003                     fputc@fp:
   401                           	opt callstack 0
   402  000003                     strlen@a:
   403                           	opt callstack 0
   404                           
   405                           ; 2 bytes @ 0x2
   406  000003                     	ds	1
   407  000004                     i2WritePort_BBSPI@a:
   408                           	opt callstack 0
   409                           
   410                           ; 1 bytes @ 0x3
   411  000004                     	ds	1
   412  000005                     ??_fputc:
   413  000005                     i2WritePort_BBSPI@port_add:
   414                           	opt callstack 0
   415                           
   416                           ; 1 bytes @ 0x4
   417  000005                     	ds	1
   418  000006                     ??_LCDPutChar:
   419  000006                     ??i2_LCDPutInst:
   420                           
   421                           ; 1 bytes @ 0x5
   422  000006                     	ds	1
   423  000007                     LCDPutChar@ch:
   424                           	opt callstack 0
   425  000007                     i2LCDPutInst@ch:
   426                           	opt callstack 0
   427                           
   428                           ; 1 bytes @ 0x6
   429  000007                     	ds	1
   430  000008                     LCDPutStr@ptr:
   431                           	opt callstack 0
   432                           
   433                           ; 2 bytes @ 0x7
   434  000008                     	ds	1
   435  000009                     ___aodiv@divisor:
   436                           	opt callstack 0
   437  000009                     ___aomod@divisor:
   438                           	opt callstack 0
   439                           
   440                           ; 8 bytes @ 0x8
   441  000009                     	ds	1
   442  00000A                     fputs@s:
   443                           	opt callstack 0
   444                           
   445                           ; 2 bytes @ 0x9
   446  00000A                     	ds	2
   447  00000C                     fputs@fp:
   448                           	opt callstack 0
   449                           
   450                           ; 2 bytes @ 0xB
   451  00000C                     	ds	2
   452  00000E                     fputs@c:
   453                           	opt callstack 0
   454                           
   455                           ; 1 bytes @ 0xD
   456  00000E                     	ds	1
   457  00000F                     fputs@i:
   458                           	opt callstack 0
   459                           
   460                           ; 2 bytes @ 0xE
   461  00000F                     	ds	2
   462  000011                     ?_pad:
   463                           	opt callstack 0
   464  000011                     ___aodiv@counter:
   465                           	opt callstack 0
   466  000011                     ___aomod@counter:
   467                           	opt callstack 0
   468  000011                     pad@fp:
   469                           	opt callstack 0
   470                           
   471                           ; 2 bytes @ 0x10
   472  000011                     	ds	1
   473  000012                     ___aodiv@sign:
   474                           	opt callstack 0
   475  000012                     ___aomod@sign:
   476                           	opt callstack 0
   477                           
   478                           ; 1 bytes @ 0x11
   479  000012                     	ds	1
   480  000013                     ?_abs:
   481                           	opt callstack 0
   482  000013                     pad@buf:
   483                           	opt callstack 0
   484  000013                     abs@a:
   485                           	opt callstack 0
   486  000013                     ___aodiv@quotient:
   487                           	opt callstack 0
   488                           
   489                           ; 8 bytes @ 0x12
   490  000013                     	ds	2
   491  000015                     ??_abs:
   492  000015                     pad@p:
   493                           	opt callstack 0
   494                           
   495                           ; 2 bytes @ 0x14
   496  000015                     	ds	2
   497  000017                     ??_pad:
   498                           
   499                           ; 1 bytes @ 0x16
   500  000017                     	ds	1
   501  000018                     pad@i:
   502                           	opt callstack 0
   503                           
   504                           ; 2 bytes @ 0x17
   505  000018                     	ds	2
   506  00001A                     pad@w:
   507                           	opt callstack 0
   508                           
   509                           ; 2 bytes @ 0x19
   510  00001A                     	ds	2
   511  00001C                     ?_dtoa:
   512                           	opt callstack 0
   513  00001C                     dtoa@fp:
   514                           	opt callstack 0
   515                           
   516                           ; 2 bytes @ 0x1B
   517  00001C                     	ds	2
   518  00001E                     dtoa@d:
   519                           	opt callstack 0
   520                           
   521                           ; 8 bytes @ 0x1D
   522  00001E                     	ds	8
   523  000026                     ??_dtoa:
   524                           
   525                           ; 1 bytes @ 0x25
   526  000026                     	ds	8
   527  00002E                     _dtoa$1270:
   528                           	opt callstack 0
   529                           
   530                           ; 2 bytes @ 0x2D
   531  00002E                     	ds	2
   532  000030                     dtoa@p:
   533                           	opt callstack 0
   534                           
   535                           ; 2 bytes @ 0x2F
   536  000030                     	ds	2
   537  000032                     dtoa@w:
   538                           	opt callstack 0
   539                           
   540                           ; 2 bytes @ 0x31
   541  000032                     	ds	2
   542  000034                     dtoa@s:
   543                           	opt callstack 0
   544                           
   545                           ; 2 bytes @ 0x33
   546  000034                     	ds	2
   547  000036                     dtoa@n:
   548                           	opt callstack 0
   549                           
   550                           ; 8 bytes @ 0x35
   551  000036                     	ds	8
   552  00003E                     dtoa@i:
   553                           	opt callstack 0
   554                           
   555                           ; 2 bytes @ 0x3D
   556  00003E                     	ds	2
   557  000040                     ?_vfpfcnvrt:
   558                           	opt callstack 0
   559  000040                     vfpfcnvrt@fp:
   560                           	opt callstack 0
   561                           
   562                           ; 2 bytes @ 0x3F
   563  000040                     	ds	2
   564  000042                     vfpfcnvrt@fmt:
   565                           	opt callstack 0
   566                           
   567                           ; 2 bytes @ 0x41
   568  000042                     	ds	2
   569  000044                     vfpfcnvrt@ap:
   570                           	opt callstack 0
   571                           
   572                           ; 2 bytes @ 0x43
   573  000044                     	ds	2
   574  000046                     ??_vfpfcnvrt:
   575                           
   576                           ; 1 bytes @ 0x45
   577  000046                     	ds	2
   578  000048                     vfpfcnvrt@ll:
   579                           	opt callstack 0
   580                           
   581                           ; 8 bytes @ 0x47
   582  000048                     	ds	8
   583  000050                     ?_vfprintf:
   584                           	opt callstack 0
   585  000050                     vfprintf@fp:
   586                           	opt callstack 0
   587                           
   588                           ; 2 bytes @ 0x4F
   589  000050                     	ds	2
   590  000052                     vfprintf@fmt:
   591                           	opt callstack 0
   592                           
   593                           ; 2 bytes @ 0x51
   594  000052                     	ds	2
   595  000054                     vfprintf@ap:
   596                           	opt callstack 0
   597                           
   598                           ; 2 bytes @ 0x53
   599  000054                     	ds	2
   600  000056                     vfprintf@cfmt:
   601                           	opt callstack 0
   602                           
   603                           ; 2 bytes @ 0x55
   604  000056                     	ds	2
   605  000058                     ?_sprintf:
   606                           	opt callstack 0
   607  000058                     sprintf@s:
   608                           	opt callstack 0
   609                           
   610                           ; 2 bytes @ 0x57
   611  000058                     	ds	2
   612  00005A                     sprintf@fmt:
   613                           	opt callstack 0
   614                           
   615                           ; 2 bytes @ 0x59
   616  00005A                     	ds	4
   617  00005E                     
   618                           ; 1 bytes @ 0x5D
   619 ;;
   620 ;;Main: autosize = 0, tempsize = 0, incstack = 0, save=0
   621 ;;
   622 ;; *************** function _main *****************
   623 ;; Defined at:
   624 ;;		line 9 in file "main.c"
   625 ;; Parameters:    Size  Location     Type
   626 ;;		None
   627 ;; Auto vars:     Size  Location     Type
   628 ;;		None
   629 ;; Return value:  Size  Location     Type
   630 ;;                  1    wreg      void 
   631 ;; Registers used:
   632 ;;		wreg, status,2, status,0, cstack
   633 ;; Tracked objects:
   634 ;;		On entry : 0/0
   635 ;;		On exit  : 0/0
   636 ;;		Unchanged: 0/0
   637 ;; Data sizes:     COMRAM   BANK0   BANK1   BANK2   BANK3   BANK4   BANK5   BANK6   BANK7   BANK8   BANK9  BANK10  BANK1
      +1  BANK12  BANK13  BANK14  BANK15
   638 ;;      Params:         0       0       0       0       0       0       0       0       0       0       0       0       
      +0       0       0       0       0
   639 ;;      Locals:         0       0       0       0       0       0       0       0       0       0       0       0       
      +0       0       0       0       0
   640 ;;      Temps:          0       0       0       0       0       0       0       0       0       0       0       0       
      +0       0       0       0       0
   641 ;;      Totals:         0       0       0       0       0       0       0       0       0       0       0       0       
      +0       0       0       0       0
   642 ;;Total ram usage:        0 bytes
   643 ;; Hardware stack levels required when called:   15
   644 ;; This function calls:
   645 ;;		_LCDInit
   646 ;;		_system_initialize
   647 ;; This function is called by:
   648 ;;		Startup code after reset
   649 ;; This function uses a non-reentrant model
   650 ;;
   651                           
   652                           	psect	text0
   653  00242E                     __ptext0:
   654                           	opt callstack 0
   655  00242E                     _main:
   656                           	opt callstack 16
   657  00242E                     
   658                           ;main.c: 10:     system_initialize();
   659  00242E  EC21  F012         	call	_system_initialize	;wreg free
   660  002432                     
   661                           ;main.c: 11:     LCDInit();
   662  002432  ECC7  F00E         	call	_LCDInit	;wreg free
   663  002436                     
   664                           ;main.c: 12:     INTCONbits.GIE = 1;
   665  002436  8EF2               	bsf	242,7,c	;volatile
   666  002438                     
   667                           ;main.c: 13:     INTCONbits.PEIE = 1;
   668  002438  8CF2               	bsf	242,6,c	;volatile
   669  00243A                     l156:
   670  00243A  EF1D  F012         	goto	l156
   671  00243E  EF07  F000         	goto	start
   672  002442                     __end_of_main:
   673                           	opt callstack 0
   674                           
   675 ;; *************** function _system_initialize *****************
   676 ;; Defined at:
   677 ;;		line 3 in file "setup_basic.c"
   678 ;; Parameters:    Size  Location     Type
   679 ;;		None
   680 ;; Auto vars:     Size  Location     Type
   681 ;;		None
   682 ;; Return value:  Size  Location     Type
   683 ;;                  1    wreg      void 
   684 ;; Registers used:
   685 ;;		wreg, status,2, cstack
   686 ;; Tracked objects:
   687 ;;		On entry : 0/0
   688 ;;		On exit  : 0/0
   689 ;;		Unchanged: 0/0
   690 ;; Data sizes:     COMRAM   BANK0   BANK1   BANK2   BANK3   BANK4   BANK5   BANK6   BANK7   BANK8   BANK9  BANK10  BANK1
      +1  BANK12  BANK13  BANK14  BANK15
   691 ;;      Params:         0       0       0       0       0       0       0       0       0       0       0       0       
      +0       0       0       0       0
   692 ;;      Locals:         0       0       0       0       0       0       0       0       0       0       0       0       
      +0       0       0       0       0
   693 ;;      Temps:          0       0       0       0       0       0       0       0       0       0       0       0       
      +0       0       0       0       0
   694 ;;      Totals:         0       0       0       0       0       0       0       0       0       0       0       0       
      +0       0       0       0       0
   695 ;;Total ram usage:        0 bytes
   696 ;; Hardware stack levels used:    1
   697 ;; Hardware stack levels required when called:   12
   698 ;; This function calls:
   699 ;;		_interrupt_initialize
   700 ;;		_oscillator_initialize
   701 ;;		_pin_manager
   702 ;;		_timer_0_initialize
   703 ;; This function is called by:
   704 ;;		_main
   705 ;; This function uses a non-reentrant model
   706 ;;
   707                           
   708                           	psect	text1
   709  002442                     __ptext1:
   710                           	opt callstack 0
   711  002442                     _system_initialize:
   712                           	opt callstack 18
   713  002442                     
   714                           ;setup_basic.c: 4:     pin_manager();
   715  002442  EC2A  F012         	call	_pin_manager	;wreg free
   716                           
   717                           ;setup_basic.c: 5:     oscillator_initialize();
   718  002446  EC3C  F012         	call	_oscillator_initialize	;wreg free
   719  00244A                     
   720                           ;setup_basic.c: 7:     interrupt_initialize();
   721  00244A  EC41  F012         	call	_interrupt_initialize	;wreg free
   722  00244E                     
   723                           ;setup_basic.c: 8:     timer_0_initialize();
   724  00244E  ECFC  F011         	call	_timer_0_initialize	;wreg free
   725  002452  0012               	return		;funcret
   726  002454                     __end_of_system_initialize:
   727                           	opt callstack 0
   728                           
   729 ;; *************** function _timer_0_initialize *****************
   730 ;; Defined at:
   731 ;;		line 43 in file "setup_basic.c"
   732 ;; Parameters:    Size  Location     Type
   733 ;;		None
   734 ;; Auto vars:     Size  Location     Type
   735 ;;		None
   736 ;; Return value:  Size  Location     Type
   737 ;;                  1    wreg      void 
   738 ;; Registers used:
   739 ;;		wreg, status,2
   740 ;; Tracked objects:
   741 ;;		On entry : 0/0
   742 ;;		On exit  : 0/0
   743 ;;		Unchanged: 0/0
   744 ;; Data sizes:     COMRAM   BANK0   BANK1   BANK2   BANK3   BANK4   BANK5   BANK6   BANK7   BANK8   BANK9  BANK10  BANK1
      +1  BANK12  BANK13  BANK14  BANK15
   745 ;;      Params:         0       0       0       0       0       0       0       0       0       0       0       0       
      +0       0       0       0       0
   746 ;;      Locals:         0       0       0       0       0       0       0       0       0       0       0       0       
      +0       0       0       0       0
   747 ;;      Temps:          0       0       0       0       0       0       0       0       0       0       0       0       
      +0       0       0       0       0
   748 ;;      Totals:         0       0       0       0       0       0       0       0       0       0       0       0       
      +0       0       0       0       0
   749 ;;Total ram usage:        0 bytes
   750 ;; Hardware stack levels used:    1
   751 ;; Hardware stack levels required when called:   11
   752 ;; This function calls:
   753 ;;		Nothing
   754 ;; This function is called by:
   755 ;;		_system_initialize
   756 ;; This function uses a non-reentrant model
   757 ;;
   758                           
   759                           	psect	text2
   760  0023F8                     __ptext2:
   761                           	opt callstack 0
   762  0023F8                     _timer_0_initialize:
   763                           	opt callstack 18
   764  0023F8                     
   765                           ;setup_basic.c: 44:     T0CON = 0b00001000;
   766  0023F8  0E08               	movlw	8
   767  0023FA  6ED5               	movwf	213,c	;volatile
   768                           
   769                           ;setup_basic.c: 46:     TMR0H = 0xB1;
   770  0023FC  0EB1               	movlw	177
   771  0023FE  6ED7               	movwf	215,c	;volatile
   772                           
   773                           ;setup_basic.c: 47:     TMR0L = 0xE0;
   774  002400  0EE0               	movlw	224
   775  002402  6ED6               	movwf	214,c	;volatile
   776  002404                     
   777                           ;setup_basic.c: 49:     timer0ReloadVal = TMR0;
   778  002404  CFD6 F0C7          	movff	4054,_timer0ReloadVal	;volatile
   779  002408  CFD7 F0C8          	movff	4055,_timer0ReloadVal+1	;volatile
   780  00240C                     
   781                           ;setup_basic.c: 51:     INTCONbits.TMR0IF = 0;
   782  00240C  94F2               	bcf	242,2,c	;volatile
   783  00240E                     
   784                           ;setup_basic.c: 52:     INTCONbits.TMR0IE = 1;
   785  00240E  8AF2               	bsf	242,5,c	;volatile
   786  002410                     
   787                           ;setup_basic.c: 53:     T0CONbits.TMR0ON = 1;
   788  002410  8ED5               	bsf	213,7,c	;volatile
   789  002412  0012               	return		;funcret
   790  002414                     __end_of_timer_0_initialize:
   791                           	opt callstack 0
   792                           
   793 ;; *************** function _pin_manager *****************
   794 ;; Defined at:
   795 ;;		line 12 in file "setup_basic.c"
   796 ;; Parameters:    Size  Location     Type
   797 ;;		None
   798 ;; Auto vars:     Size  Location     Type
   799 ;;		None
   800 ;; Return value:  Size  Location     Type
   801 ;;                  1    wreg      void 
   802 ;; Registers used:
   803 ;;		wreg, status,2
   804 ;; Tracked objects:
   805 ;;		On entry : 0/0
   806 ;;		On exit  : 0/0
   807 ;;		Unchanged: 0/0
   808 ;; Data sizes:     COMRAM   BANK0   BANK1   BANK2   BANK3   BANK4   BANK5   BANK6   BANK7   BANK8   BANK9  BANK10  BANK1
      +1  BANK12  BANK13  BANK14  BANK15
   809 ;;      Params:         0       0       0       0       0       0       0       0       0       0       0       0       
      +0       0       0       0       0
   810 ;;      Locals:         0       0       0       0       0       0       0       0       0       0       0       0       
      +0       0       0       0       0
   811 ;;      Temps:          0       0       0       0       0       0       0       0       0       0       0       0       
      +0       0       0       0       0
   812 ;;      Totals:         0       0       0       0       0       0       0       0       0       0       0       0       
      +0       0       0       0       0
   813 ;;Total ram usage:        0 bytes
   814 ;; Hardware stack levels used:    1
   815 ;; Hardware stack levels required when called:   11
   816 ;; This function calls:
   817 ;;		Nothing
   818 ;; This function is called by:
   819 ;;		_system_initialize
   820 ;; This function uses a non-reentrant model
   821 ;;
   822                           
   823                           	psect	text3
   824  002454                     __ptext3:
   825                           	opt callstack 0
   826  002454                     _pin_manager:
   827                           	opt callstack 18
   828  002454                     
   829                           ;setup_basic.c: 13:     TRISD = 0x00;
   830  002454  0E00               	movlw	0
   831  002456  6E95               	movwf	149,c	;volatile
   832                           
   833                           ;setup_basic.c: 14:     LATD = 0x00;
   834  002458  0E00               	movlw	0
   835  00245A  6E8C               	movwf	140,c	;volatile
   836  00245C                     
   837                           ;setup_basic.c: 17:     TRISBbits.TRISB0 = 1;
   838  00245C  8093               	bsf	147,0,c	;volatile
   839  00245E                     
   840                           ;setup_basic.c: 19:     TRISAbits.TRISA5 = 1;
   841  00245E  8A92               	bsf	146,5,c	;volatile
   842                           
   843                           ;setup_basic.c: 20:     ADCON1 = 0b00001111;
   844  002460  0E0F               	movlw	15
   845  002462  6EC1               	movwf	193,c	;volatile
   846  002464  0012               	return		;funcret
   847  002466                     __end_of_pin_manager:
   848                           	opt callstack 0
   849                           
   850 ;; *************** function _oscillator_initialize *****************
   851 ;; Defined at:
   852 ;;		line 23 in file "setup_basic.c"
   853 ;; Parameters:    Size  Location     Type
   854 ;;		None
   855 ;; Auto vars:     Size  Location     Type
   856 ;;		None
   857 ;; Return value:  Size  Location     Type
   858 ;;                  1    wreg      void 
   859 ;; Registers used:
   860 ;;		wreg, status,2
   861 ;; Tracked objects:
   862 ;;		On entry : 0/0
   863 ;;		On exit  : 0/0
   864 ;;		Unchanged: 0/0
   865 ;; Data sizes:     COMRAM   BANK0   BANK1   BANK2   BANK3   BANK4   BANK5   BANK6   BANK7   BANK8   BANK9  BANK10  BANK1
      +1  BANK12  BANK13  BANK14  BANK15
   866 ;;      Params:         0       0       0       0       0       0       0       0       0       0       0       0       
      +0       0       0       0       0
   867 ;;      Locals:         0       0       0       0       0       0       0       0       0       0       0       0       
      +0       0       0       0       0
   868 ;;      Temps:          0       0       0       0       0       0       0       0       0       0       0       0       
      +0       0       0       0       0
   869 ;;      Totals:         0       0       0       0       0       0       0       0       0       0       0       0       
      +0       0       0       0       0
   870 ;;Total ram usage:        0 bytes
   871 ;; Hardware stack levels used:    1
   872 ;; Hardware stack levels required when called:   11
   873 ;; This function calls:
   874 ;;		Nothing
   875 ;; This function is called by:
   876 ;;		_system_initialize
   877 ;; This function uses a non-reentrant model
   878 ;;
   879                           
   880                           	psect	text4
   881  002478                     __ptext4:
   882                           	opt callstack 0
   883  002478                     _oscillator_initialize:
   884                           	opt callstack 18
   885  002478                     
   886                           ;setup_basic.c: 26:     OSCCON = 0x73;
   887  002478  0E73               	movlw	115
   888  00247A  6ED3               	movwf	211,c	;volatile
   889                           
   890                           ;setup_basic.c: 27:     OSCTUNE = 0b01000000;
   891  00247C  0E40               	movlw	64
   892  00247E  6E9B               	movwf	155,c	;volatile
   893  002480  0012               	return		;funcret
   894  002482                     __end_of_oscillator_initialize:
   895                           	opt callstack 0
   896                           
   897 ;; *************** function _interrupt_initialize *****************
   898 ;; Defined at:
   899 ;;		line 30 in file "setup_basic.c"
   900 ;; Parameters:    Size  Location     Type
   901 ;;		None
   902 ;; Auto vars:     Size  Location     Type
   903 ;;		None
   904 ;; Return value:  Size  Location     Type
   905 ;;                  1    wreg      void 
   906 ;; Registers used:
   907 ;;		None
   908 ;; Tracked objects:
   909 ;;		On entry : 0/0
   910 ;;		On exit  : 0/0
   911 ;;		Unchanged: 0/0
   912 ;; Data sizes:     COMRAM   BANK0   BANK1   BANK2   BANK3   BANK4   BANK5   BANK6   BANK7   BANK8   BANK9  BANK10  BANK1
      +1  BANK12  BANK13  BANK14  BANK15
   913 ;;      Params:         0       0       0       0       0       0       0       0       0       0       0       0       
      +0       0       0       0       0
   914 ;;      Locals:         0       0       0       0       0       0       0       0       0       0       0       0       
      +0       0       0       0       0
   915 ;;      Temps:          0       0       0       0       0       0       0       0       0       0       0       0       
      +0       0       0       0       0
   916 ;;      Totals:         0       0       0       0       0       0       0       0       0       0       0       0       
      +0       0       0       0       0
   917 ;;Total ram usage:        0 bytes
   918 ;; Hardware stack levels used:    1
   919 ;; Hardware stack levels required when called:   11
   920 ;; This function calls:
   921 ;;		Nothing
   922 ;; This function is called by:
   923 ;;		_system_initialize
   924 ;; This function uses a non-reentrant model
   925 ;;
   926                           
   927                           	psect	text5
   928  002482                     __ptext5:
   929                           	opt callstack 0
   930  002482                     _interrupt_initialize:
   931                           	opt callstack 18
   932  002482                     
   933                           ;setup_basic.c: 31:     RCONbits.IPEN = 0;
   934  002482  9ED0               	bcf	208,7,c	;volatile
   935                           
   936                           ;setup_basic.c: 35:     INTCON2bits.TMR0IP = 0;
   937  002484  94F1               	bcf	241,2,c	;volatile
   938  002486  0012               	return		;funcret
   939  002488                     __end_of_interrupt_initialize:
   940                           	opt callstack 0
   941                           
   942 ;; *************** function _LCDInit *****************
   943 ;; Defined at:
   944 ;;		line 3 in file "setup_LCD_2.c"
   945 ;; Parameters:    Size  Location     Type
   946 ;;		None
   947 ;; Auto vars:     Size  Location     Type
   948 ;;		None
   949 ;; Return value:  Size  Location     Type
   950 ;;                  1    wreg      void 
   951 ;; Registers used:
   952 ;;		wreg, status,2, status,0, cstack
   953 ;; Tracked objects:
   954 ;;		On entry : 0/0
   955 ;;		On exit  : 0/0
   956 ;;		Unchanged: 0/0
   957 ;; Data sizes:     COMRAM   BANK0   BANK1   BANK2   BANK3   BANK4   BANK5   BANK6   BANK7   BANK8   BANK9  BANK10  BANK1
      +1  BANK12  BANK13  BANK14  BANK15
   958 ;;      Params:         0       0       0       0       0       0       0       0       0       0       0       0       
      +0       0       0       0       0
   959 ;;      Locals:         0       0       0       0       0       0       0       0       0       0       0       0       
      +0       0       0       0       0
   960 ;;      Temps:          0       1       0       0       0       0       0       0       0       0       0       0       
      +0       0       0       0       0
   961 ;;      Totals:         0       1       0       0       0       0       0       0       0       0       0       0       
      +0       0       0       0       0
   962 ;;Total ram usage:        1 bytes
   963 ;; Hardware stack levels used:    1
   964 ;; Hardware stack levels required when called:   14
   965 ;; This function calls:
   966 ;;		_InitBBSPI
   967 ;;		_LCDPutInst
   968 ;;		_Port_BBSPIInit
   969 ;;		_WritePort_BBSPI
   970 ;; This function is called by:
   971 ;;		_main
   972 ;; This function uses a non-reentrant model
   973 ;;
   974                           
   975                           	psect	text6
   976  001D8E                     __ptext6:
   977                           	opt callstack 0
   978  001D8E                     _LCDInit:
   979                           	opt callstack 16
   980  001D8E                     
   981                           ;setup_LCD_2.c: 5:     InitBBSPI();
   982  001D8E  EC33  F012         	call	_InitBBSPI	;wreg free
   983  001D92                     
   984                           ;setup_LCD_2.c: 6:     TRISFbits.TRISF6 = 0;
   985  001D92  9C97               	bcf	151,6,c	;volatile
   986  001D94                     
   987                           ;setup_LCD_2.c: 7:     LATFbits.LATF6 = 0;
   988  001D94  9C8E               	bcf	142,6,c	;volatile
   989  001D96                     
   990                           ;setup_LCD_2.c: 8:     _delay((unsigned long)((5)*(10000000/4000.0)));
   991  001D96  0E11               	movlw	17
   992  001D98  0100               	movlb	0	; () banked
   993  001D9A  6FC2               	movwf	??_LCDInit& (0+255),b
   994  001D9C  0E3A               	movlw	58
   995  001D9E                     u1757:
   996  001D9E  2EE8               	decfsz	wreg,f,c
   997  001DA0  D7FE               	bra	u1757
   998  001DA2  2FC2               	decfsz	??_LCDInit& (0+255),f,b
   999  001DA4  D7FC               	bra	u1757
  1000  001DA6  F000               	nop	
  1001  001DA8                     
  1002                           ;setup_LCD_2.c: 9:     LATFbits.LATF6 = 1;
  1003  001DA8  8C8E               	bsf	142,6,c	;volatile
  1004  001DAA                     
  1005                           ;setup_LCD_2.c: 10:     Port_BBSPIInit (0x00);
  1006  001DAA  0E00               	movlw	0
  1007  001DAC  ECED  F011         	call	_Port_BBSPIInit
  1008  001DB0                     
  1009                           ;setup_LCD_2.c: 11:     Port_BBSPIInit (0x01);
  1010  001DB0  0E01               	movlw	1
  1011  001DB2  ECED  F011         	call	_Port_BBSPIInit
  1012  001DB6                     
  1013                           ;setup_LCD_2.c: 12:     WritePort_BBSPI (0x12, 0);
  1014  001DB6  0E00               	movlw	0
  1015  001DB8  0100               	movlb	0	; () banked
  1016  001DBA  6FBE               	movwf	WritePort_BBSPI@a& (0+255),b
  1017  001DBC  0E12               	movlw	18
  1018  001DBE  ECCD  F011         	call	_WritePort_BBSPI
  1019  001DC2                     
  1020                           ;setup_LCD_2.c: 13:     _delay((unsigned long)((15)*(10000000/4000.0)));
  1021  001DC2  0E31               	movlw	49
  1022  001DC4  0100               	movlb	0	; () banked
  1023  001DC6  6FC2               	movwf	??_LCDInit& (0+255),b
  1024  001DC8  0EB2               	movlw	178
  1025  001DCA                     u1767:
  1026  001DCA  2EE8               	decfsz	wreg,f,c
  1027  001DCC  D7FE               	bra	u1767
  1028  001DCE  2FC2               	decfsz	??_LCDInit& (0+255),f,b
  1029  001DD0  D7FC               	bra	u1767
  1030  001DD2  F000               	nop	
  1031  001DD4                     
  1032                           ;setup_LCD_2.c: 14:     LCDPutInst(0x32);
  1033  001DD4  0E32               	movlw	50
  1034  001DD6  EC16  F00E         	call	_LCDPutInst
  1035  001DDA                     
  1036                           ;setup_LCD_2.c: 15:     LCDPutInst(0x3C);
  1037  001DDA  0E3C               	movlw	60
  1038  001DDC  EC16  F00E         	call	_LCDPutInst
  1039  001DE0                     
  1040                           ;setup_LCD_2.c: 16:     LCDPutInst(0x0C);
  1041  001DE0  0E0C               	movlw	12
  1042  001DE2  EC16  F00E         	call	_LCDPutInst
  1043  001DE6                     
  1044                           ;setup_LCD_2.c: 17:     LCDPutInst(0x01);
  1045  001DE6  0E01               	movlw	1
  1046  001DE8  EC16  F00E         	call	_LCDPutInst
  1047  001DEC                     
  1048                           ;setup_LCD_2.c: 18:     LCDPutInst(0x06);
  1049  001DEC  0E06               	movlw	6
  1050  001DEE  EC16  F00E         	call	_LCDPutInst
  1051  001DF2  0012               	return		;funcret
  1052  001DF4                     __end_of_LCDInit:
  1053                           	opt callstack 0
  1054                           
  1055 ;; *************** function _Port_BBSPIInit *****************
  1056 ;; Defined at:
  1057 ;;		line 81 in file "setup_LCD_2.c"
  1058 ;; Parameters:    Size  Location     Type
  1059 ;;  port_dir        1    wreg     unsigned char 
  1060 ;; Auto vars:     Size  Location     Type
  1061 ;;  port_dir        1   23[BANK0 ] unsigned char 
  1062 ;; Return value:  Size  Location     Type
  1063 ;;                  1    wreg      void 
  1064 ;; Registers used:
  1065 ;;		wreg, status,2, status,0, cstack
  1066 ;; Tracked objects:
  1067 ;;		On entry : 0/0
  1068 ;;		On exit  : 0/0
  1069 ;;		Unchanged: 0/0
  1070 ;; Data sizes:     COMRAM   BANK0   BANK1   BANK2   BANK3   BANK4   BANK5   BANK6   BANK7   BANK8   BANK9  BANK10  BANK1
      +1  BANK12  BANK13  BANK14  BANK15
  1071 ;;      Params:         0       0       0       0       0       0       0       0       0       0       0       0       
      +0       0       0       0       0
  1072 ;;      Locals:         0       1       0       0       0       0       0       0       0       0       0       0       
      +0       0       0       0       0
  1073 ;;      Temps:          0       0       0       0       0       0       0       0       0       0       0       0       
      +0       0       0       0       0
  1074 ;;      Totals:         0       1       0       0       0       0       0       0       0       0       0       0       
      +0       0       0       0       0
  1075 ;;Total ram usage:        1 bytes
  1076 ;; Hardware stack levels used:    1
  1077 ;; Hardware stack levels required when called:   12
  1078 ;; This function calls:
  1079 ;;		_SendByteBBSPI
  1080 ;; This function is called by:
  1081 ;;		_LCDInit
  1082 ;; This function uses a non-reentrant model
  1083 ;;
  1084                           
  1085                           	psect	text7
  1086  0023DA                     __ptext7:
  1087                           	opt callstack 0
  1088  0023DA                     _Port_BBSPIInit:
  1089                           	opt callstack 17
  1090                           
  1091                           ;incstack = 0
  1092                           ;Port_BBSPIInit@port_dir stored from wreg
  1093  0023DA  0100               	movlb	0	; () banked
  1094  0023DC  6FBE               	movwf	Port_BBSPIInit@port_dir& (0+255),b
  1095  0023DE                     
  1096                           ;setup_LCD_2.c: 81: void Port_BBSPIInit (unsigned char port_dir);setup_LCD_2.c: 82: {;se
      +                          tup_LCD_2.c: 86:     LATAbits.LATA2 = 0;
  1097  0023DE  9489               	bcf	137,2,c	;volatile
  1098  0023E0                     
  1099                           ;setup_LCD_2.c: 87:     SendByteBBSPI(0x40);
  1100  0023E0  0E40               	movlw	64
  1101  0023E2  EC54  F00E         	call	_SendByteBBSPI
  1102                           
  1103                           ;setup_LCD_2.c: 88:     SendByteBBSPI(port_dir);
  1104  0023E6  0100               	movlb	0	; () banked
  1105  0023E8  51BE               	movf	Port_BBSPIInit@port_dir& (0+255),w,b
  1106  0023EA  EC54  F00E         	call	_SendByteBBSPI
  1107                           
  1108                           ;setup_LCD_2.c: 89:     SendByteBBSPI(0x00);
  1109  0023EE  0E00               	movlw	0
  1110  0023F0  EC54  F00E         	call	_SendByteBBSPI
  1111  0023F4                     
  1112                           ;setup_LCD_2.c: 90:     LATAbits.LATA2 = 1;
  1113  0023F4  8489               	bsf	137,2,c	;volatile
  1114  0023F6  0012               	return		;funcret
  1115  0023F8                     __end_of_Port_BBSPIInit:
  1116                           	opt callstack 0
  1117                           
  1118 ;; *************** function _LCDPutInst *****************
  1119 ;; Defined at:
  1120 ;;		line 137 in file "setup_LCD_2.c"
  1121 ;; Parameters:    Size  Location     Type
  1122 ;;  ch              1    wreg     unsigned char 
  1123 ;; Auto vars:     Size  Location     Type
  1124 ;;  ch              1   26[BANK0 ] unsigned char 
  1125 ;; Return value:  Size  Location     Type
  1126 ;;                  1    wreg      void 
  1127 ;; Registers used:
  1128 ;;		wreg, status,2, status,0, cstack
  1129 ;; Tracked objects:
  1130 ;;		On entry : 0/0
  1131 ;;		On exit  : 0/0
  1132 ;;		Unchanged: 0/0
  1133 ;; Data sizes:     COMRAM   BANK0   BANK1   BANK2   BANK3   BANK4   BANK5   BANK6   BANK7   BANK8   BANK9  BANK10  BANK1
      +1  BANK12  BANK13  BANK14  BANK15
  1134 ;;      Params:         0       0       0       0       0       0       0       0       0       0       0       0       
      +0       0       0       0       0
  1135 ;;      Locals:         0       1       0       0       0       0       0       0       0       0       0       0       
      +0       0       0       0       0
  1136 ;;      Temps:          0       1       0       0       0       0       0       0       0       0       0       0       
      +0       0       0       0       0
  1137 ;;      Totals:         0       2       0       0       0       0       0       0       0       0       0       0       
      +0       0       0       0       0
  1138 ;;Total ram usage:        2 bytes
  1139 ;; Hardware stack levels used:    1
  1140 ;; Hardware stack levels required when called:   13
  1141 ;; This function calls:
  1142 ;;		_WritePort_BBSPI
  1143 ;; This function is called by:
  1144 ;;		_LCDInit
  1145 ;; This function uses a non-reentrant model
  1146 ;;
  1147                           
  1148                           	psect	text8
  1149  001C2C                     __ptext8:
  1150                           	opt callstack 0
  1151  001C2C                     _LCDPutInst:
  1152                           	opt callstack 16
  1153                           
  1154                           ;incstack = 0
  1155                           ;LCDPutInst@ch stored from wreg
  1156  001C2C  0100               	movlb	0	; () banked
  1157  001C2E  6FC1               	movwf	LCDPutInst@ch& (0+255),b
  1158  001C30                     
  1159                           ;setup_LCD_2.c: 137: void LCDPutInst (unsigned char ch);setup_LCD_2.c: 138: {;setup_LCD_
      +                          2.c: 139:     _delay((unsigned long)((5)*(10000000/4000.0)));
  1160  001C30  0E11               	movlw	17
  1161  001C32  0100               	movlb	0	; () banked
  1162  001C34  6FC0               	movwf	??_LCDPutInst& (0+255),b
  1163  001C36  0E3A               	movlw	58
  1164  001C38                     u1777:
  1165  001C38  2EE8               	decfsz	wreg,f,c
  1166  001C3A  D7FE               	bra	u1777
  1167  001C3C  2FC0               	decfsz	??_LCDPutInst& (0+255),f,b
  1168  001C3E  D7FC               	bra	u1777
  1169  001C40  F000               	nop	
  1170  001C42                     
  1171                           ;setup_LCD_2.c: 140:     WritePort_BBSPI (0x12, 0x00);
  1172  001C42  0E00               	movlw	0
  1173  001C44  0100               	movlb	0	; () banked
  1174  001C46  6FBE               	movwf	WritePort_BBSPI@a& (0+255),b
  1175  001C48  0E12               	movlw	18
  1176  001C4A  ECCD  F011         	call	_WritePort_BBSPI
  1177  001C4E                     
  1178                           ;setup_LCD_2.c: 141:     _delay((unsigned long)((1)*(10000000/4000.0)));
  1179  001C4E  0E04               	movlw	4
  1180  001C50  0100               	movlb	0	; () banked
  1181  001C52  6FC0               	movwf	??_LCDPutInst& (0+255),b
  1182  001C54  0E3D               	movlw	61
  1183  001C56                     u1787:
  1184  001C56  2EE8               	decfsz	wreg,f,c
  1185  001C58  D7FE               	bra	u1787
  1186  001C5A  2FC0               	decfsz	??_LCDPutInst& (0+255),f,b
  1187  001C5C  D7FC               	bra	u1787
  1188  001C5E  D000               	nop2	
  1189  001C60                     
  1190                           ;setup_LCD_2.c: 142:     WritePort_BBSPI (0x13, ch);
  1191  001C60  C0C1  F0BE         	movff	LCDPutInst@ch,WritePort_BBSPI@a
  1192  001C64  0E13               	movlw	19
  1193  001C66  ECCD  F011         	call	_WritePort_BBSPI
  1194  001C6A                     
  1195                           ;setup_LCD_2.c: 143:     _delay((unsigned long)((1)*(10000000/4000.0)));
  1196  001C6A  0E04               	movlw	4
  1197  001C6C  0100               	movlb	0	; () banked
  1198  001C6E  6FC0               	movwf	??_LCDPutInst& (0+255),b
  1199  001C70  0E3D               	movlw	61
  1200  001C72                     u1797:
  1201  001C72  2EE8               	decfsz	wreg,f,c
  1202  001C74  D7FE               	bra	u1797
  1203  001C76  2FC0               	decfsz	??_LCDPutInst& (0+255),f,b
  1204  001C78  D7FC               	bra	u1797
  1205  001C7A  D000               	nop2	
  1206  001C7C                     
  1207                           ;setup_LCD_2.c: 144:     WritePort_BBSPI (0x12,0x40);
  1208  001C7C  0E40               	movlw	64
  1209  001C7E  0100               	movlb	0	; () banked
  1210  001C80  6FBE               	movwf	WritePort_BBSPI@a& (0+255),b
  1211  001C82  0E12               	movlw	18
  1212  001C84  ECCD  F011         	call	_WritePort_BBSPI
  1213  001C88                     
  1214                           ;setup_LCD_2.c: 145:     _delay((unsigned long)((1)*(10000000/4000.0)));
  1215  001C88  0E04               	movlw	4
  1216  001C8A  0100               	movlb	0	; () banked
  1217  001C8C  6FC0               	movwf	??_LCDPutInst& (0+255),b
  1218  001C8E  0E3D               	movlw	61
  1219  001C90                     u1807:
  1220  001C90  2EE8               	decfsz	wreg,f,c
  1221  001C92  D7FE               	bra	u1807
  1222  001C94  2FC0               	decfsz	??_LCDPutInst& (0+255),f,b
  1223  001C96  D7FC               	bra	u1807
  1224  001C98  D000               	nop2	
  1225  001C9A                     
  1226                           ;setup_LCD_2.c: 146:     WritePort_BBSPI (0x12, 0x00);
  1227  001C9A  0E00               	movlw	0
  1228  001C9C  0100               	movlb	0	; () banked
  1229  001C9E  6FBE               	movwf	WritePort_BBSPI@a& (0+255),b
  1230  001CA0  0E12               	movlw	18
  1231  001CA2  ECCD  F011         	call	_WritePort_BBSPI
  1232  001CA6  0012               	return		;funcret
  1233  001CA8                     __end_of_LCDPutInst:
  1234                           	opt callstack 0
  1235                           
  1236 ;; *************** function _WritePort_BBSPI *****************
  1237 ;; Defined at:
  1238 ;;		line 102 in file "setup_LCD_2.c"
  1239 ;; Parameters:    Size  Location     Type
  1240 ;;  port_add        1    wreg     unsigned char 
  1241 ;;  a               1   23[BANK0 ] unsigned char 
  1242 ;; Auto vars:     Size  Location     Type
  1243 ;;  port_add        1   24[BANK0 ] unsigned char 
  1244 ;; Return value:  Size  Location     Type
  1245 ;;                  1    wreg      void 
  1246 ;; Registers used:
  1247 ;;		wreg, status,2, status,0, cstack
  1248 ;; Tracked objects:
  1249 ;;		On entry : 0/0
  1250 ;;		On exit  : 0/0
  1251 ;;		Unchanged: 0/0
  1252 ;; Data sizes:     COMRAM   BANK0   BANK1   BANK2   BANK3   BANK4   BANK5   BANK6   BANK7   BANK8   BANK9  BANK10  BANK1
      +1  BANK12  BANK13  BANK14  BANK15
  1253 ;;      Params:         0       1       0       0       0       0       0       0       0       0       0       0       
      +0       0       0       0       0
  1254 ;;      Locals:         0       1       0       0       0       0       0       0       0       0       0       0       
      +0       0       0       0       0
  1255 ;;      Temps:          0       0       0       0       0       0       0       0       0       0       0       0       
      +0       0       0       0       0
  1256 ;;      Totals:         0       2       0       0       0       0       0       0       0       0       0       0       
      +0       0       0       0       0
  1257 ;;Total ram usage:        2 bytes
  1258 ;; Hardware stack levels used:    1
  1259 ;; Hardware stack levels required when called:   12
  1260 ;; This function calls:
  1261 ;;		_SendByteBBSPI
  1262 ;; This function is called by:
  1263 ;;		_LCDInit
  1264 ;;		_LCDPutInst
  1265 ;; This function uses a non-reentrant model
  1266 ;;
  1267                           
  1268                           	psect	text9
  1269  00239A                     __ptext9:
  1270                           	opt callstack 0
  1271  00239A                     _WritePort_BBSPI:
  1272                           	opt callstack 17
  1273                           
  1274                           ;incstack = 0
  1275                           ;WritePort_BBSPI@port_add stored from wreg
  1276  00239A  0100               	movlb	0	; () banked
  1277  00239C  6FBF               	movwf	WritePort_BBSPI@port_add& (0+255),b
  1278  00239E                     
  1279                           ;setup_LCD_2.c: 102: void WritePort_BBSPI (unsigned char port_add, unsigned char a);setu
      +                          p_LCD_2.c: 103: {;setup_LCD_2.c: 104:     LATAbits.LATA2 = 0;
  1280  00239E  9489               	bcf	137,2,c	;volatile
  1281  0023A0                     
  1282                           ;setup_LCD_2.c: 105:     SendByteBBSPI(0x40);
  1283  0023A0  0E40               	movlw	64
  1284  0023A2  EC54  F00E         	call	_SendByteBBSPI
  1285                           
  1286                           ;setup_LCD_2.c: 106:     SendByteBBSPI(port_add);
  1287  0023A6  0100               	movlb	0	; () banked
  1288  0023A8  51BF               	movf	WritePort_BBSPI@port_add& (0+255),w,b
  1289  0023AA  EC54  F00E         	call	_SendByteBBSPI
  1290                           
  1291                           ;setup_LCD_2.c: 107:     SendByteBBSPI(a);
  1292  0023AE  0100               	movlb	0	; () banked
  1293  0023B0  51BE               	movf	WritePort_BBSPI@a& (0+255),w,b
  1294  0023B2  EC54  F00E         	call	_SendByteBBSPI
  1295  0023B6                     
  1296                           ;setup_LCD_2.c: 108:     LATAbits.LATA2 = 1;
  1297  0023B6  8489               	bsf	137,2,c	;volatile
  1298  0023B8  0012               	return		;funcret
  1299  0023BA                     __end_of_WritePort_BBSPI:
  1300                           	opt callstack 0
  1301                           
  1302 ;; *************** function _SendByteBBSPI *****************
  1303 ;; Defined at:
  1304 ;;		line 49 in file "setup_LCD_2.c"
  1305 ;; Parameters:    Size  Location     Type
  1306 ;;  output          1    wreg     unsigned char 
  1307 ;; Auto vars:     Size  Location     Type
  1308 ;;  output          1   20[BANK0 ] unsigned char 
  1309 ;;  input           1   22[BANK0 ] unsigned char 
  1310 ;;  bitcount        1   21[BANK0 ] unsigned char 
  1311 ;; Return value:  Size  Location     Type
  1312 ;;                  1    wreg      void 
  1313 ;; Registers used:
  1314 ;;		wreg, status,2, status,0
  1315 ;; Tracked objects:
  1316 ;;		On entry : 0/0
  1317 ;;		On exit  : 0/0
  1318 ;;		Unchanged: 0/0
  1319 ;; Data sizes:     COMRAM   BANK0   BANK1   BANK2   BANK3   BANK4   BANK5   BANK6   BANK7   BANK8   BANK9  BANK10  BANK1
      +1  BANK12  BANK13  BANK14  BANK15
  1320 ;;      Params:         0       0       0       0       0       0       0       0       0       0       0       0       
      +0       0       0       0       0
  1321 ;;      Locals:         0       3       0       0       0       0       0       0       0       0       0       0       
      +0       0       0       0       0
  1322 ;;      Temps:          0       0       0       0       0       0       0       0       0       0       0       0       
      +0       0       0       0       0
  1323 ;;      Totals:         0       3       0       0       0       0       0       0       0       0       0       0       
      +0       0       0       0       0
  1324 ;;Total ram usage:        3 bytes
  1325 ;; Hardware stack levels used:    1
  1326 ;; Hardware stack levels required when called:   11
  1327 ;; This function calls:
  1328 ;;		Nothing
  1329 ;; This function is called by:
  1330 ;;		_Port_BBSPIInit
  1331 ;;		_WritePort_BBSPI
  1332 ;; This function uses a non-reentrant model
  1333 ;;
  1334                           
  1335                           	psect	text10
  1336  001CA8                     __ptext10:
  1337                           	opt callstack 0
  1338  001CA8                     _SendByteBBSPI:
  1339                           	opt callstack 17
  1340                           
  1341                           ;incstack = 0
  1342                           ;SendByteBBSPI@output stored from wreg
  1343  001CA8  0100               	movlb	0	; () banked
  1344  001CAA  6FBB               	movwf	SendByteBBSPI@output& (0+255),b
  1345  001CAC                     
  1346                           ;setup_LCD_2.c: 49: void SendByteBBSPI (unsigned char output);setup_LCD_2.c: 50: {;setup
      +                          _LCD_2.c: 51:     unsigned char bitcount;;setup_LCD_2.c: 52:     unsigned char input = o
      +                          utput;
  1347  001CAC  C0BB  F0BD         	movff	SendByteBBSPI@output,SendByteBBSPI@input
  1348  001CB0                     
  1349                           ;setup_LCD_2.c: 54:     for(bitcount=0;bitcount<8;bitcount++)
  1350  001CB0  0E00               	movlw	0
  1351  001CB2  0100               	movlb	0	; () banked
  1352  001CB4  6FBC               	movwf	SendByteBBSPI@bitcount& (0+255),b
  1353  001CB6                     l328:
  1354                           
  1355                           ; BSR set to: 0
  1356                           ;setup_LCD_2.c: 55:     {;setup_LCD_2.c: 57:         if(output & 0x80)
  1357  001CB6  AFBB               	btfss	SendByteBBSPI@output& (0+255),7,b
  1358  001CB8  EF60  F00E         	goto	u1341
  1359  001CBC  EF62  F00E         	goto	u1340
  1360  001CC0                     u1341:
  1361  001CC0  EF65  F00E         	goto	l330
  1362  001CC4                     u1340:
  1363  001CC4                     
  1364                           ; BSR set to: 0
  1365                           ;setup_LCD_2.c: 58:             LATCbits.LATC5 = 1;
  1366  001CC4  8A8B               	bsf	139,5,c	;volatile
  1367  001CC6  EF66  F00E         	goto	l331
  1368  001CCA                     l330:
  1369                           
  1370                           ; BSR set to: 0
  1371                           ;setup_LCD_2.c: 60:             LATCbits.LATC5 = 0;
  1372  001CCA  9A8B               	bcf	139,5,c	;volatile
  1373  001CCC                     l331:
  1374                           
  1375                           ; BSR set to: 0
  1376                           ;setup_LCD_2.c: 62:         if (LATCbits.LATC4)
  1377  001CCC  A88B               	btfss	139,4,c	;volatile
  1378  001CCE  EF6B  F00E         	goto	u1351
  1379  001CD2  EF6D  F00E         	goto	u1350
  1380  001CD6                     u1351:
  1381  001CD6  EF71  F00E         	goto	l2282
  1382  001CDA                     u1350:
  1383  001CDA                     
  1384                           ; BSR set to: 0
  1385                           ;setup_LCD_2.c: 63:             input = (input << 1) | 0x1;
  1386  001CDA  80D8               	bsf	status,0,c
  1387  001CDC  37BD               	rlcf	SendByteBBSPI@input& (0+255),f,b
  1388  001CDE  EF74  F00E         	goto	l2284
  1389  001CE2                     l2282:
  1390                           
  1391                           ; BSR set to: 0
  1392                           ;setup_LCD_2.c: 65:             input = input << 1;
  1393  001CE2  51BD               	movf	SendByteBBSPI@input& (0+255),w,b
  1394  001CE4  25BD               	addwf	SendByteBBSPI@input& (0+255),w,b
  1395  001CE6  6FBD               	movwf	SendByteBBSPI@input& (0+255),b
  1396  001CE8                     l2284:
  1397                           
  1398                           ; BSR set to: 0
  1399                           ;setup_LCD_2.c: 66:         LATCbits.LATC3 = 1;
  1400  001CE8  868B               	bsf	139,3,c	;volatile
  1401  001CEA                     
  1402                           ; BSR set to: 0
  1403                           ;setup_LCD_2.c: 67:         __nop();__nop();__nop();__nop();__nop();__nop();
  1404  001CEA  F000               	nop	
  1405  001CEC  F000               	nop	
  1406  001CEE  F000               	nop	
  1407  001CF0  F000               	nop	
  1408  001CF2  F000               	nop	
  1409  001CF4  F000               	nop	
  1410  001CF6                     
  1411                           ;setup_LCD_2.c: 68:         __nop();__nop();__nop();__nop();__nop();__nop();
  1412  001CF6  F000               	nop	
  1413  001CF8  F000               	nop	
  1414  001CFA  F000               	nop	
  1415  001CFC  F000               	nop	
  1416  001CFE  F000               	nop	
  1417  001D00  F000               	nop	
  1418  001D02                     
  1419                           ;setup_LCD_2.c: 69:         LATCbits.LATC3 = 0;
  1420  001D02  968B               	bcf	139,3,c	;volatile
  1421                           
  1422                           ;setup_LCD_2.c: 70:         output <<= 1;
  1423  001D04  0100               	movlb	0	; () banked
  1424  001D06  90D8               	bcf	status,0,c
  1425  001D08  37BB               	rlcf	SendByteBBSPI@output& (0+255),f,b
  1426  001D0A                     
  1427                           ; BSR set to: 0
  1428                           ;setup_LCD_2.c: 71:     }
  1429  001D0A  2BBC               	incf	SendByteBBSPI@bitcount& (0+255),f,b
  1430  001D0C                     
  1431                           ; BSR set to: 0
  1432  001D0C  0E07               	movlw	7
  1433  001D0E  65BC               	cpfsgt	SendByteBBSPI@bitcount& (0+255),b
  1434  001D10  EF8C  F00E         	goto	u1361
  1435  001D14  EF8E  F00E         	goto	u1360
  1436  001D18                     u1361:
  1437  001D18  EF5B  F00E         	goto	l328
  1438  001D1C                     u1360:
  1439  001D1C                     
  1440                           ; BSR set to: 0
  1441  001D1C  0012               	return		;funcret
  1442  001D1E                     __end_of_SendByteBBSPI:
  1443                           	opt callstack 0
  1444                           
  1445 ;; *************** function _InitBBSPI *****************
  1446 ;; Defined at:
  1447 ;;		line 28 in file "setup_LCD_2.c"
  1448 ;; Parameters:    Size  Location     Type
  1449 ;;		None
  1450 ;; Auto vars:     Size  Location     Type
  1451 ;;		None
  1452 ;; Return value:  Size  Location     Type
  1453 ;;                  1    wreg      void 
  1454 ;; Registers used:
  1455 ;;		None
  1456 ;; Tracked objects:
  1457 ;;		On entry : 0/0
  1458 ;;		On exit  : 0/0
  1459 ;;		Unchanged: 0/0
  1460 ;; Data sizes:     COMRAM   BANK0   BANK1   BANK2   BANK3   BANK4   BANK5   BANK6   BANK7   BANK8   BANK9  BANK10  BANK1
      +1  BANK12  BANK13  BANK14  BANK15
  1461 ;;      Params:         0       0       0       0       0       0       0       0       0       0       0       0       
      +0       0       0       0       0
  1462 ;;      Locals:         0       0       0       0       0       0       0       0       0       0       0       0       
      +0       0       0       0       0
  1463 ;;      Temps:          0       0       0       0       0       0       0       0       0       0       0       0       
      +0       0       0       0       0
  1464 ;;      Totals:         0       0       0       0       0       0       0       0       0       0       0       0       
      +0       0       0       0       0
  1465 ;;Total ram usage:        0 bytes
  1466 ;; Hardware stack levels used:    1
  1467 ;; Hardware stack levels required when called:   11
  1468 ;; This function calls:
  1469 ;;		Nothing
  1470 ;; This function is called by:
  1471 ;;		_LCDInit
  1472 ;; This function uses a non-reentrant model
  1473 ;;
  1474                           
  1475                           	psect	text11
  1476  002466                     __ptext11:
  1477                           	opt callstack 0
  1478  002466                     _InitBBSPI:
  1479                           	opt callstack 18
  1480  002466                     
  1481                           ;setup_LCD_2.c: 30:     TRISAbits.TRISA2 = 0;
  1482  002466  9492               	bcf	146,2,c	;volatile
  1483                           
  1484                           ;setup_LCD_2.c: 31:     TRISCbits.TRISC4 = 1;
  1485  002468  8894               	bsf	148,4,c	;volatile
  1486                           
  1487                           ;setup_LCD_2.c: 32:     TRISCbits.TRISC5 = 0;
  1488  00246A  9A94               	bcf	148,5,c	;volatile
  1489                           
  1490                           ;setup_LCD_2.c: 33:     TRISCbits.TRISC3 = 0;
  1491  00246C  9694               	bcf	148,3,c	;volatile
  1492                           
  1493                           ;setup_LCD_2.c: 35:     LATAbits.LATA2 = 1;
  1494  00246E  8489               	bsf	137,2,c	;volatile
  1495                           
  1496                           ;setup_LCD_2.c: 36:     LATCbits.LATC4 = 1;
  1497  002470  888B               	bsf	139,4,c	;volatile
  1498                           
  1499                           ;setup_LCD_2.c: 37:     LATCbits.LATC5 = 0;
  1500  002472  9A8B               	bcf	139,5,c	;volatile
  1501                           
  1502                           ;setup_LCD_2.c: 38:     LATCbits.LATC3 = 0;
  1503  002474  968B               	bcf	139,3,c	;volatile
  1504  002476  0012               	return		;funcret
  1505  002478                     __end_of_InitBBSPI:
  1506                           	opt callstack 0
  1507                           
  1508 ;; *************** function _function_interrupt_TMR0 *****************
  1509 ;; Defined at:
  1510 ;;		line 56 in file "setup_basic.c"
  1511 ;; Parameters:    Size  Location     Type
  1512 ;;		None
  1513 ;; Auto vars:     Size  Location     Type
  1514 ;;		None
  1515 ;; Return value:  Size  Location     Type
  1516 ;;                  1    wreg      void 
  1517 ;; Registers used:
  1518 ;;		wreg, fsr1l, fsr1h, fsr2l, fsr2h, status,2, status,0, tblptrl, tblptrh, tblptru, cstack
  1519 ;; Tracked objects:
  1520 ;;		On entry : 0/0
  1521 ;;		On exit  : 0/0
  1522 ;;		Unchanged: 0/0
  1523 ;; Data sizes:     COMRAM   BANK0   BANK1   BANK2   BANK3   BANK4   BANK5   BANK6   BANK7   BANK8   BANK9  BANK10  BANK1
      +1  BANK12  BANK13  BANK14  BANK15
  1524 ;;      Params:         0       0       0       0       0       0       0       0       0       0       0       0       
      +0       0       0       0       0
  1525 ;;      Locals:         0       0       0       0       0       0       0       0       0       0       0       0       
      +0       0       0       0       0
  1526 ;;      Temps:          0       8       0       0       0       0       0       0       0       0       0       0       
      +0       0       0       0       0
  1527 ;;      Totals:         0       8       0       0       0       0       0       0       0       0       0       0       
      +0       0       0       0       0
  1528 ;;Total ram usage:        8 bytes
  1529 ;; Hardware stack levels used:    1
  1530 ;; Hardware stack levels required when called:   10
  1531 ;; This function calls:
  1532 ;;		_FSM
  1533 ;;		_operate_DHT11
  1534 ;;		_print_DHT11
  1535 ;; This function is called by:
  1536 ;;		Interrupt level 2
  1537 ;; This function uses a non-reentrant model
  1538 ;;
  1539                           
  1540                           	psect	intcode
  1541  000008                     __pintcode:
  1542                           	opt callstack 0
  1543  000008                     _function_interrupt_TMR0:
  1544                           	opt callstack 16
  1545                           
  1546                           ;incstack = 0
  1547  000008  825F               	bsf	int$flags,1,c	;set compiler interrupt flag (level 2)
  1548  00000A  EDD8  F00C         	call	int_func,f	;refresh shadow registers
  1549                           
  1550                           	psect	intcode_body
  1551  0019B0                     __pintcode_body:
  1552                           	opt callstack 16
  1553  0019B0                     int_func:
  1554                           	opt callstack 16
  1555  0019B0  0006               	pop		; remove dummy address from shadow register refresh
  1556  0019B2  CFE1 F0B3          	movff	fsr1l,??_function_interrupt_TMR0
  1557  0019B6  CFE2 F0B4          	movff	fsr1h,??_function_interrupt_TMR0+1
  1558  0019BA  CFD9 F0B5          	movff	fsr2l,??_function_interrupt_TMR0+2
  1559  0019BE  CFDA F0B6          	movff	fsr2h,??_function_interrupt_TMR0+3
  1560  0019C2  CFF6 F0B7          	movff	tblptrl,??_function_interrupt_TMR0+4
  1561  0019C6  CFF7 F0B8          	movff	tblptrh,??_function_interrupt_TMR0+5
  1562  0019CA  CFF8 F0B9          	movff	tblptru,??_function_interrupt_TMR0+6
  1563  0019CE  CFF5 F0BA          	movff	tablat,??_function_interrupt_TMR0+7
  1564  0019D2                     
  1565                           ;setup_basic.c: 57:     if ((INTCONbits.TMR0IE == 1) &&(INTCONbits.TMR0IF == 1)){
  1566  0019D2  AAF2               	btfss	242,5,c	;volatile
  1567  0019D4  EFEE  F00C         	goto	i2u168_41
  1568  0019D8  EFF0  F00C         	goto	i2u168_40
  1569  0019DC                     i2u168_41:
  1570  0019DC  EF3C  F00D         	goto	i2l107
  1571  0019E0                     i2u168_40:
  1572  0019E0  A4F2               	btfss	242,2,c	;volatile
  1573  0019E2  EFF5  F00C         	goto	i2u169_41
  1574  0019E6  EFF7  F00C         	goto	i2u169_40
  1575  0019EA                     i2u169_41:
  1576  0019EA  EF3C  F00D         	goto	i2l107
  1577  0019EE                     i2u169_40:
  1578  0019EE                     
  1579                           ;setup_basic.c: 58:         INTCONbits.TMR0IF = 0;
  1580  0019EE  94F2               	bcf	242,2,c	;volatile
  1581  0019F0                     
  1582                           ;setup_basic.c: 59:         TMR0H = (timer0ReloadVal >> 8);
  1583  0019F0  0100               	movlb	0	; () banked
  1584  0019F2  51C8               	movf	(_timer0ReloadVal+1)& (0+255),w,b	;volatile
  1585  0019F4  6ED7               	movwf	215,c	;volatile
  1586  0019F6                     
  1587                           ; BSR set to: 0
  1588                           ;setup_basic.c: 60:         TMR0L = (unsigned char) timer0ReloadVal;
  1589  0019F6  C0C7  FFD6         	movff	_timer0ReloadVal,4054	;volatile
  1590  0019FA                     
  1591                           ; BSR set to: 0
  1592                           ;setup_basic.c: 74:         count_1_sec = count_1_sec + 1;
  1593  0019FA  0E01               	movlw	1
  1594  0019FC  2568               	addwf	_count_1_sec& (0+255),w,b
  1595  0019FE  6F68               	movwf	_count_1_sec& (0+255),b
  1596  001A00  0E00               	movlw	0
  1597  001A02  2169               	addwfc	(_count_1_sec+1)& (0+255),w,b
  1598  001A04  6F69               	movwf	(_count_1_sec+1)& (0+255),b
  1599  001A06                     
  1600                           ; BSR set to: 0
  1601                           ;setup_basic.c: 75:         if (count_1_sec == 200){
  1602  001A06  0EC8               	movlw	200
  1603  001A08  1968               	xorwf	_count_1_sec& (0+255),w,b
  1604  001A0A  1169               	iorwf	(_count_1_sec+1)& (0+255),w,b
  1605  001A0C  A4D8               	btfss	status,2,c
  1606  001A0E  EF0B  F00D         	goto	i2u170_41
  1607  001A12  EF0D  F00D         	goto	i2u170_40
  1608  001A16                     i2u170_41:
  1609  001A16  EF3A  F00D         	goto	i2l2692
  1610  001A1A                     i2u170_40:
  1611  001A1A                     
  1612                           ; BSR set to: 0
  1613                           ;setup_basic.c: 76:             operate_DHT11();
  1614  001A1A  EC9E  F011         	call	_operate_DHT11	;wreg free
  1615  001A1E                     
  1616                           ;setup_basic.c: 77:             if ((current_state == state_03) || (current_state == sta
      +                          te_04)|| (current_state == state_05)|| (current_state == state_06) ){
  1617  001A1E  0E03               	movlw	3
  1618  001A20  185E               	xorwf	_current_state^0,w,c
  1619  001A22  B4D8               	btfsc	status,2,c
  1620  001A24  EF16  F00D         	goto	i2u171_41
  1621  001A28  EF18  F00D         	goto	i2u171_40
  1622  001A2C                     i2u171_41:
  1623  001A2C  EF33  F00D         	goto	i2l2688
  1624  001A30                     i2u171_40:
  1625  001A30  0E04               	movlw	4
  1626  001A32  185E               	xorwf	_current_state^0,w,c
  1627  001A34  B4D8               	btfsc	status,2,c
  1628  001A36  EF1F  F00D         	goto	i2u172_41
  1629  001A3A  EF21  F00D         	goto	i2u172_40
  1630  001A3E                     i2u172_41:
  1631  001A3E  EF33  F00D         	goto	i2l2688
  1632  001A42                     i2u172_40:
  1633  001A42  0E05               	movlw	5
  1634  001A44  185E               	xorwf	_current_state^0,w,c
  1635  001A46  B4D8               	btfsc	status,2,c
  1636  001A48  EF28  F00D         	goto	i2u173_41
  1637  001A4C  EF2A  F00D         	goto	i2u173_40
  1638  001A50                     i2u173_41:
  1639  001A50  EF33  F00D         	goto	i2l2688
  1640  001A54                     i2u173_40:
  1641  001A54  0E06               	movlw	6
  1642  001A56  185E               	xorwf	_current_state^0,w,c
  1643  001A58  A4D8               	btfss	status,2,c
  1644  001A5A  EF31  F00D         	goto	i2u174_41
  1645  001A5E  EF33  F00D         	goto	i2u174_40
  1646  001A62                     i2u174_41:
  1647  001A62  EF35  F00D         	goto	i2l2690
  1648  001A66                     i2u174_40:
  1649  001A66                     i2l2688:
  1650                           
  1651                           ;setup_basic.c: 78:                 print_DHT11();
  1652  001A66  ECFA  F00E         	call	_print_DHT11	;wreg free
  1653  001A6A                     i2l2690:
  1654                           
  1655                           ;setup_basic.c: 80:             count_1_sec = 0;
  1656  001A6A  0E00               	movlw	0
  1657  001A6C  0100               	movlb	0	; () banked
  1658  001A6E  6F69               	movwf	(_count_1_sec+1)& (0+255),b
  1659  001A70  0E00               	movlw	0
  1660  001A72  6F68               	movwf	_count_1_sec& (0+255),b
  1661  001A74                     i2l2692:
  1662                           
  1663                           ; BSR set to: 0
  1664                           ;setup_basic.c: 82:         FSM();
  1665  001A74  EC7E  F009         	call	_FSM	;wreg free
  1666  001A78                     i2l107:
  1667  001A78  C0BA  FFF5         	movff	??_function_interrupt_TMR0+7,tablat
  1668  001A7C  C0B9  FFF8         	movff	??_function_interrupt_TMR0+6,tblptru
  1669  001A80  C0B8  FFF7         	movff	??_function_interrupt_TMR0+5,tblptrh
  1670  001A84  C0B7  FFF6         	movff	??_function_interrupt_TMR0+4,tblptrl
  1671  001A88  C0B6  FFDA         	movff	??_function_interrupt_TMR0+3,fsr2h
  1672  001A8C  C0B5  FFD9         	movff	??_function_interrupt_TMR0+2,fsr2l
  1673  001A90  C0B4  FFE2         	movff	??_function_interrupt_TMR0+1,fsr1h
  1674  001A94  C0B3  FFE1         	movff	??_function_interrupt_TMR0,fsr1l
  1675  001A98  925F               	bcf	int$flags,1,c	;clear compiler interrupt flag (level 2)
  1676  001A9A  0011               	retfie		f
  1677  001A9C                     __end_of_function_interrupt_TMR0:
  1678                           	opt callstack 0
  1679                           
  1680 ;; *************** function _print_DHT11 *****************
  1681 ;; Defined at:
  1682 ;;		line 49 in file "dht11_01.c"
  1683 ;; Parameters:    Size  Location     Type
  1684 ;;		None
  1685 ;; Auto vars:     Size  Location     Type
  1686 ;;		None
  1687 ;; Return value:  Size  Location     Type
  1688 ;;                  1    wreg      void 
  1689 ;; Registers used:
  1690 ;;		wreg, fsr1l, fsr1h, fsr2l, fsr2h, status,2, status,0, tblptrl, tblptrh, tblptru, cstack
  1691 ;; Tracked objects:
  1692 ;;		On entry : 0/0
  1693 ;;		On exit  : 0/0
  1694 ;;		Unchanged: 0/0
  1695 ;; Data sizes:     COMRAM   BANK0   BANK1   BANK2   BANK3   BANK4   BANK5   BANK6   BANK7   BANK8   BANK9  BANK10  BANK1
      +1  BANK12  BANK13  BANK14  BANK15
  1696 ;;      Params:         0       0       0       0       0       0       0       0       0       0       0       0       
      +0       0       0       0       0
  1697 ;;      Locals:         0       0       0       0       0       0       0       0       0       0       0       0       
      +0       0       0       0       0
  1698 ;;      Temps:          0       0       0       0       0       0       0       0       0       0       0       0       
      +0       0       0       0       0
  1699 ;;      Totals:         0       0       0       0       0       0       0       0       0       0       0       0       
      +0       0       0       0       0
  1700 ;;Total ram usage:        0 bytes
  1701 ;; Hardware stack levels used:    1
  1702 ;; Hardware stack levels required when called:    8
  1703 ;; This function calls:
  1704 ;;		_LCDPutChar
  1705 ;;		_LCDPutStr
  1706 ;;		_sprintf
  1707 ;;		i2_LCDPutInst
  1708 ;; This function is called by:
  1709 ;;		_function_interrupt_TMR0
  1710 ;; This function uses a non-reentrant model
  1711 ;;
  1712                           
  1713                           	psect	text13
  1714  001DF4                     __ptext13:
  1715                           	opt callstack 0
  1716  001DF4                     _print_DHT11:
  1717                           	opt callstack 17
  1718  001DF4                     
  1719                           ;dht11_01.c: 50:     sprintf(value, "%d", RH_Integral);
  1720  001DF4  0E9A               	movlw	low _value
  1721  001DF6  6E58               	movwf	sprintf@s^0,c
  1722  001DF8  0E00               	movlw	high _value
  1723  001DFA  6E59               	movwf	(sprintf@s+1)^0,c
  1724  001DFC  0E16               	movlw	low STR_2
  1725  001DFE  6E5A               	movwf	sprintf@fmt^0,c
  1726  001E00  0E10               	movlw	high STR_2
  1727  001E02  6E5B               	movwf	(sprintf@fmt+1)^0,c
  1728  001E04  C075  F05C         	movff	_RH_Integral,?_sprintf+4
  1729  001E08  6A5D               	clrf	(?_sprintf+5)^0,c
  1730  001E0A  EC7F  F010         	call	_sprintf	;wreg free
  1731  001E0E                     
  1732                           ;dht11_01.c: 51:     LCDPutInst(0x80);
  1733  001E0E  0E80               	movlw	128
  1734  001E10  EC2D  F00F         	call	i2_LCDPutInst
  1735  001E14                     
  1736                           ;dht11_01.c: 52:     LCDPutStr(value);
  1737  001E14  0E9A               	movlw	low _value
  1738  001E16  6E08               	movwf	LCDPutStr@ptr^0,c
  1739  001E18  0E00               	movlw	high _value
  1740  001E1A  6E09               	movwf	(LCDPutStr@ptr+1)^0,c
  1741  001E1C  ECC6  F00F         	call	_LCDPutStr	;wreg free
  1742  001E20                     
  1743                           ;dht11_01.c: 53:     LCDPutChar('%');
  1744  001E20  0E25               	movlw	37
  1745  001E22  EC93  F00F         	call	_LCDPutChar
  1746  001E26                     
  1747                           ;dht11_01.c: 55:     sprintf(value, "%d", T_Integral);
  1748  001E26  0E9A               	movlw	low _value
  1749  001E28  6E58               	movwf	sprintf@s^0,c
  1750  001E2A  0E00               	movlw	high _value
  1751  001E2C  6E59               	movwf	(sprintf@s+1)^0,c
  1752  001E2E  0E16               	movlw	low STR_2
  1753  001E30  6E5A               	movwf	sprintf@fmt^0,c
  1754  001E32  0E10               	movlw	high STR_2
  1755  001E34  6E5B               	movwf	(sprintf@fmt+1)^0,c
  1756  001E36  C073  F05C         	movff	_T_Integral,?_sprintf+4
  1757  001E3A  6A5D               	clrf	(?_sprintf+5)^0,c
  1758  001E3C  EC7F  F010         	call	_sprintf	;wreg free
  1759  001E40                     
  1760                           ;dht11_01.c: 56:     LCDPutInst(0xC0);
  1761  001E40  0EC0               	movlw	192
  1762  001E42  EC2D  F00F         	call	i2_LCDPutInst
  1763  001E46                     
  1764                           ;dht11_01.c: 57:     LCDPutStr(value);
  1765  001E46  0E9A               	movlw	low _value
  1766  001E48  6E08               	movwf	LCDPutStr@ptr^0,c
  1767  001E4A  0E00               	movlw	high _value
  1768  001E4C  6E09               	movwf	(LCDPutStr@ptr+1)^0,c
  1769  001E4E  ECC6  F00F         	call	_LCDPutStr	;wreg free
  1770                           
  1771                           ;dht11_01.c: 58:     LCDPutChar('C');
  1772  001E52  0E43               	movlw	67
  1773  001E54  EC93  F00F         	call	_LCDPutChar
  1774  001E58  0012               	return		;funcret
  1775  001E5A                     __end_of_print_DHT11:
  1776                           	opt callstack 0
  1777                           
  1778 ;; *************** function _operate_DHT11 *****************
  1779 ;; Defined at:
  1780 ;;		line 32 in file "dht11_01.c"
  1781 ;; Parameters:    Size  Location     Type
  1782 ;;		None
  1783 ;; Auto vars:     Size  Location     Type
  1784 ;;		None
  1785 ;; Return value:  Size  Location     Type
  1786 ;;                  2   40[None  ] int 
  1787 ;; Registers used:
  1788 ;;		wreg, status,2, status,0, cstack
  1789 ;; Tracked objects:
  1790 ;;		On entry : 0/0
  1791 ;;		On exit  : 0/0
  1792 ;;		Unchanged: 0/0
  1793 ;; Data sizes:     COMRAM   BANK0   BANK1   BANK2   BANK3   BANK4   BANK5   BANK6   BANK7   BANK8   BANK9  BANK10  BANK1
      +1  BANK12  BANK13  BANK14  BANK15
  1794 ;;      Params:         0       0       0       0       0       0       0       0       0       0       0       0       
      +0       0       0       0       0
  1795 ;;      Locals:         0       0       0       0       0       0       0       0       0       0       0       0       
      +0       0       0       0       0
  1796 ;;      Temps:          0       0       0       0       0       0       0       0       0       0       0       0       
      +0       0       0       0       0
  1797 ;;      Totals:         0       0       0       0       0       0       0       0       0       0       0       0       
      +0       0       0       0       0
  1798 ;;Total ram usage:        0 bytes
  1799 ;; Hardware stack levels used:    1
  1800 ;; Hardware stack levels required when called:    1
  1801 ;; This function calls:
  1802 ;;		_DHT11_CheckResponse
  1803 ;;		_DHT11_ReadData
  1804 ;;		_DHT11_Start
  1805 ;; This function is called by:
  1806 ;;		_function_interrupt_TMR0
  1807 ;; This function uses a non-reentrant model
  1808 ;;
  1809                           
  1810                           	psect	text14
  1811  00233C                     __ptext14:
  1812                           	opt callstack 0
  1813  00233C                     _operate_DHT11:
  1814                           	opt callstack 24
  1815  00233C                     
  1816                           ;dht11_01.c: 33:     DHT11_Start();
  1817  00233C  ECDD  F011         	call	_DHT11_Start	;wreg free
  1818  002340                     
  1819                           ;dht11_01.c: 34:     DHT11_CheckResponse();
  1820  002340  ECB7  F011         	call	_DHT11_CheckResponse	;wreg free
  1821  002344                     
  1822                           ;dht11_01.c: 36:     RH_Integral = DHT11_ReadData();
  1823  002344  ECF7  F00F         	call	_DHT11_ReadData	;wreg free
  1824  002348  0100               	movlb	0	; () banked
  1825  00234A  6F75               	movwf	_RH_Integral& (0+255),b
  1826  00234C                     
  1827                           ; BSR set to: 0
  1828                           ;dht11_01.c: 37:     RH_Decimal = DHT11_ReadData();
  1829  00234C  ECF7  F00F         	call	_DHT11_ReadData	;wreg free
  1830  002350  0100               	movlb	0	; () banked
  1831  002352  6F76               	movwf	_RH_Decimal& (0+255),b
  1832  002354                     
  1833                           ; BSR set to: 0
  1834                           ;dht11_01.c: 38:     T_Integral = DHT11_ReadData();
  1835  002354  ECF7  F00F         	call	_DHT11_ReadData	;wreg free
  1836  002358  0100               	movlb	0	; () banked
  1837  00235A  6F73               	movwf	_T_Integral& (0+255),b
  1838  00235C                     
  1839                           ; BSR set to: 0
  1840                           ;dht11_01.c: 39:     T_Decimal = DHT11_ReadData();
  1841  00235C  ECF7  F00F         	call	_DHT11_ReadData	;wreg free
  1842  002360  0100               	movlb	0	; () banked
  1843  002362  6F74               	movwf	_T_Decimal& (0+255),b
  1844  002364                     
  1845                           ; BSR set to: 0
  1846                           ;dht11_01.c: 40:     Checksum = DHT11_ReadData();
  1847  002364  ECF7  F00F         	call	_DHT11_ReadData	;wreg free
  1848  002368  0100               	movlb	0	; () banked
  1849  00236A  6F72               	movwf	_Checksum& (0+255),b
  1850  00236C                     
  1851                           ; BSR set to: 0
  1852  00236C  0012               	return		;funcret
  1853  00236E                     __end_of_operate_DHT11:
  1854                           	opt callstack 0
  1855                           
  1856 ;; *************** function _DHT11_Start *****************
  1857 ;; Defined at:
  1858 ;;		line 3 in file "dht11_01.c"
  1859 ;; Parameters:    Size  Location     Type
  1860 ;;		None
  1861 ;; Auto vars:     Size  Location     Type
  1862 ;;		None
  1863 ;; Return value:  Size  Location     Type
  1864 ;;                  1    wreg      void 
  1865 ;; Registers used:
  1866 ;;		wreg
  1867 ;; Tracked objects:
  1868 ;;		On entry : 0/0
  1869 ;;		On exit  : 0/0
  1870 ;;		Unchanged: 0/0
  1871 ;; Data sizes:     COMRAM   BANK0   BANK1   BANK2   BANK3   BANK4   BANK5   BANK6   BANK7   BANK8   BANK9  BANK10  BANK1
      +1  BANK12  BANK13  BANK14  BANK15
  1872 ;;      Params:         0       0       0       0       0       0       0       0       0       0       0       0       
      +0       0       0       0       0
  1873 ;;      Locals:         0       0       0       0       0       0       0       0       0       0       0       0       
      +0       0       0       0       0
  1874 ;;      Temps:          1       0       0       0       0       0       0       0       0       0       0       0       
      +0       0       0       0       0
  1875 ;;      Totals:         1       0       0       0       0       0       0       0       0       0       0       0       
      +0       0       0       0       0
  1876 ;;Total ram usage:        1 bytes
  1877 ;; Hardware stack levels used:    1
  1878 ;; This function calls:
  1879 ;;		Nothing
  1880 ;; This function is called by:
  1881 ;;		_operate_DHT11
  1882 ;; This function uses a non-reentrant model
  1883 ;;
  1884                           
  1885                           	psect	text15
  1886  0023BA                     __ptext15:
  1887                           	opt callstack 0
  1888  0023BA                     _DHT11_Start:
  1889                           	opt callstack 24
  1890  0023BA                     
  1891                           ;dht11_01.c: 4:     TRISCbits.RC0 = 0;
  1892  0023BA  9094               	bcf	148,0,c	;volatile
  1893                           
  1894                           ;dht11_01.c: 5:     LATC0 = 0;
  1895  0023BC  908B               	bcf	3979,0,c	;volatile
  1896  0023BE                     
  1897                           ;dht11_01.c: 6:     _delay((unsigned long)((18)*(10000000/4000.0)));
  1898  0023BE  0E3B               	movlw	59
  1899  0023C0  6E01               	movwf	??_DHT11_Start^0,c
  1900  0023C2  0E70               	movlw	112
  1901  0023C4                     i2u181_47:
  1902  0023C4  2EE8               	decfsz	wreg,f,c
  1903  0023C6  D7FE               	bra	i2u181_47
  1904  0023C8  2E01               	decfsz	??_DHT11_Start^0,f,c
  1905  0023CA  D7FC               	bra	i2u181_47
  1906  0023CC                     
  1907                           ;dht11_01.c: 7:     LATC0 = 1;
  1908  0023CC  808B               	bsf	3979,0,c	;volatile
  1909                           
  1910                           ;dht11_01.c: 8:     _delay((unsigned long)((20)*(10000000/4000000.0)));
  1911  0023CE  0E10               	movlw	16
  1912  0023D0                     i2u182_47:
  1913  0023D0  2EE8               	decfsz	wreg,f,c
  1914  0023D2  D7FE               	bra	i2u182_47
  1915  0023D4  D000               	nop2	
  1916  0023D6                     
  1917                           ;dht11_01.c: 9:     TRISCbits.RC0 = 1;
  1918  0023D6  8094               	bsf	148,0,c	;volatile
  1919  0023D8  0012               	return		;funcret
  1920  0023DA                     __end_of_DHT11_Start:
  1921                           	opt callstack 0
  1922                           
  1923 ;; *************** function _DHT11_ReadData *****************
  1924 ;; Defined at:
  1925 ;;		line 18 in file "dht11_01.c"
  1926 ;; Parameters:    Size  Location     Type
  1927 ;;		None
  1928 ;; Auto vars:     Size  Location     Type
  1929 ;;  data_dht        1    1[COMRAM] unsigned char 
  1930 ;;  i               1    0[COMRAM] unsigned char 
  1931 ;; Return value:  Size  Location     Type
  1932 ;;                  1    wreg      unsigned char 
  1933 ;; Registers used:
  1934 ;;		wreg, status,2, status,0
  1935 ;; Tracked objects:
  1936 ;;		On entry : 0/0
  1937 ;;		On exit  : 0/0
  1938 ;;		Unchanged: 0/0
  1939 ;; Data sizes:     COMRAM   BANK0   BANK1   BANK2   BANK3   BANK4   BANK5   BANK6   BANK7   BANK8   BANK9  BANK10  BANK1
      +1  BANK12  BANK13  BANK14  BANK15
  1940 ;;      Params:         0       0       0       0       0       0       0       0       0       0       0       0       
      +0       0       0       0       0
  1941 ;;      Locals:         2       0       0       0       0       0       0       0       0       0       0       0       
      +0       0       0       0       0
  1942 ;;      Temps:          0       0       0       0       0       0       0       0       0       0       0       0       
      +0       0       0       0       0
  1943 ;;      Totals:         2       0       0       0       0       0       0       0       0       0       0       0       
      +0       0       0       0       0
  1944 ;;Total ram usage:        2 bytes
  1945 ;; Hardware stack levels used:    1
  1946 ;; This function calls:
  1947 ;;		Nothing
  1948 ;; This function is called by:
  1949 ;;		_operate_DHT11
  1950 ;; This function uses a non-reentrant model
  1951 ;;
  1952                           
  1953                           	psect	text16
  1954  001FEE                     __ptext16:
  1955                           	opt callstack 0
  1956  001FEE                     _DHT11_ReadData:
  1957                           	opt callstack 24
  1958  001FEE                     
  1959                           ;dht11_01.c: 19:     char i,data_dht = 0;
  1960  001FEE  0E00               	movlw	0
  1961  001FF0  6E02               	movwf	DHT11_ReadData@data_dht^0,c
  1962                           
  1963                           ;dht11_01.c: 20:     for(i=0;i<8;i++){
  1964  001FF2  0E00               	movlw	0
  1965  001FF4  6E01               	movwf	DHT11_ReadData@i^0,c
  1966  001FF6                     i2l426:
  1967  001FF6  A082               	btfss	130,0,c	;volatile
  1968  001FF8  EF00  F010         	goto	i2u154_41
  1969  001FFC  EF02  F010         	goto	i2u154_40
  1970  002000                     i2u154_41:
  1971  002000  EFFB  F00F         	goto	i2l426
  1972  002004                     i2u154_40:
  1973  002004                     
  1974                           ;dht11_01.c: 22:         _delay((unsigned long)((30)*(10000000/4000000.0)));
  1975  002004  0E19               	movlw	25
  1976  002006                     i2u183_47:
  1977  002006  2EE8               	decfsz	wreg,f,c
  1978  002008  D7FE               	bra	i2u183_47
  1979  00200A                     
  1980                           ;dht11_01.c: 23:         if(PORTCbits.RC0 & 1)
  1981  00200A  A082               	btfss	130,0,c	;volatile
  1982  00200C  EF0A  F010         	goto	i2u155_41
  1983  002010  EF0C  F010         	goto	i2u155_40
  1984  002014                     i2u155_41:
  1985  002014  EF10  F010         	goto	i2l2508
  1986  002018                     i2u155_40:
  1987  002018                     
  1988                           ;dht11_01.c: 24:           data_dht = ((data_dht<<1) | 1);
  1989  002018  80D8               	bsf	status,0,c
  1990  00201A  3602               	rlcf	DHT11_ReadData@data_dht^0,f,c
  1991  00201C  EF13  F010         	goto	i2l431
  1992  002020                     i2l2508:
  1993                           
  1994                           ;dht11_01.c: 26:           data_dht = (data_dht<<1);
  1995  002020  5002               	movf	DHT11_ReadData@data_dht^0,w,c
  1996  002022  2402               	addwf	DHT11_ReadData@data_dht^0,w,c
  1997  002024  6E02               	movwf	DHT11_ReadData@data_dht^0,c
  1998  002026                     i2l431:
  1999  002026  B082               	btfsc	130,0,c	;volatile
  2000  002028  EF18  F010         	goto	i2u156_41
  2001  00202C  EF1A  F010         	goto	i2u156_40
  2002  002030                     i2u156_41:
  2003  002030  EF13  F010         	goto	i2l431
  2004  002034                     i2u156_40:
  2005  002034                     
  2006                           ;dht11_01.c: 28:     }
  2007  002034  2A01               	incf	DHT11_ReadData@i^0,f,c
  2008  002036  0E07               	movlw	7
  2009  002038  6401               	cpfsgt	DHT11_ReadData@i^0,c
  2010  00203A  EF21  F010         	goto	i2u157_41
  2011  00203E  EF23  F010         	goto	i2u157_40
  2012  002042                     i2u157_41:
  2013  002042  EFFB  F00F         	goto	i2l426
  2014  002046                     i2u157_40:
  2015  002046                     
  2016                           ;dht11_01.c: 29:     return data_dht;
  2017  002046  5002               	movf	DHT11_ReadData@data_dht^0,w,c
  2018  002048  0012               	return		;funcret
  2019  00204A                     __end_of_DHT11_ReadData:
  2020                           	opt callstack 0
  2021                           
  2022 ;; *************** function _DHT11_CheckResponse *****************
  2023 ;; Defined at:
  2024 ;;		line 12 in file "dht11_01.c"
  2025 ;; Parameters:    Size  Location     Type
  2026 ;;		None
  2027 ;; Auto vars:     Size  Location     Type
  2028 ;;		None
  2029 ;; Return value:  Size  Location     Type
  2030 ;;                  1    wreg      void 
  2031 ;; Registers used:
  2032 ;;		None
  2033 ;; Tracked objects:
  2034 ;;		On entry : 0/0
  2035 ;;		On exit  : 0/0
  2036 ;;		Unchanged: 0/0
  2037 ;; Data sizes:     COMRAM   BANK0   BANK1   BANK2   BANK3   BANK4   BANK5   BANK6   BANK7   BANK8   BANK9  BANK10  BANK1
      +1  BANK12  BANK13  BANK14  BANK15
  2038 ;;      Params:         0       0       0       0       0       0       0       0       0       0       0       0       
      +0       0       0       0       0
  2039 ;;      Locals:         0       0       0       0       0       0       0       0       0       0       0       0       
      +0       0       0       0       0
  2040 ;;      Temps:          0       0       0       0       0       0       0       0       0       0       0       0       
      +0       0       0       0       0
  2041 ;;      Totals:         0       0       0       0       0       0       0       0       0       0       0       0       
      +0       0       0       0       0
  2042 ;;Total ram usage:        0 bytes
  2043 ;; Hardware stack levels used:    1
  2044 ;; This function calls:
  2045 ;;		Nothing
  2046 ;; This function is called by:
  2047 ;;		_operate_DHT11
  2048 ;; This function uses a non-reentrant model
  2049 ;;
  2050                           
  2051                           	psect	text17
  2052  00236E                     __ptext17:
  2053                           	opt callstack 0
  2054  00236E                     _DHT11_CheckResponse:
  2055                           	opt callstack 24
  2056  00236E                     i2l412:
  2057  00236E  B082               	btfsc	130,0,c	;volatile
  2058  002370  EFBC  F011         	goto	i2u151_41
  2059  002374  EFBE  F011         	goto	i2u151_40
  2060  002378                     i2u151_41:
  2061  002378  EFB7  F011         	goto	i2l412
  2062  00237C                     i2u151_40:
  2063  00237C                     i2l415:
  2064  00237C  A082               	btfss	130,0,c	;volatile
  2065  00237E  EFC3  F011         	goto	i2u152_41
  2066  002382  EFC5  F011         	goto	i2u152_40
  2067  002386                     i2u152_41:
  2068  002386  EFBE  F011         	goto	i2l415
  2069  00238A                     i2u152_40:
  2070  00238A                     i2l418:
  2071  00238A  B082               	btfsc	130,0,c	;volatile
  2072  00238C  EFCA  F011         	goto	i2u153_41
  2073  002390  EFCC  F011         	goto	i2u153_40
  2074  002394                     i2u153_41:
  2075  002394  EFC5  F011         	goto	i2l418
  2076  002398                     i2u153_40:
  2077  002398  0012               	return		;funcret
  2078  00239A                     __end_of_DHT11_CheckResponse:
  2079                           	opt callstack 0
  2080                           
  2081 ;; *************** function _FSM *****************
  2082 ;; Defined at:
  2083 ;;		line 60 in file "solution01.c"
  2084 ;; Parameters:    Size  Location     Type
  2085 ;;		None
  2086 ;; Auto vars:     Size  Location     Type
  2087 ;;		None
  2088 ;; Return value:  Size  Location     Type
  2089 ;;                  1    wreg      void 
  2090 ;; Registers used:
  2091 ;;		wreg, fsr1l, fsr1h, fsr2l, fsr2h, status,2, status,0, tblptrl, tblptrh, tblptru, cstack
  2092 ;; Tracked objects:
  2093 ;;		On entry : 0/0
  2094 ;;		On exit  : 0/0
  2095 ;;		Unchanged: 0/0
  2096 ;; Data sizes:     COMRAM   BANK0   BANK1   BANK2   BANK3   BANK4   BANK5   BANK6   BANK7   BANK8   BANK9  BANK10  BANK1
      +1  BANK12  BANK13  BANK14  BANK15
  2097 ;;      Params:         0       0       0       0       0       0       0       0       0       0       0       0       
      +0       0       0       0       0
  2098 ;;      Locals:         0       0       0       0       0       0       0       0       0       0       0       0       
      +0       0       0       0       0
  2099 ;;      Temps:          0       2       0       0       0       0       0       0       0       0       0       0       
      +0       0       0       0       0
  2100 ;;      Totals:         0       2       0       0       0       0       0       0       0       0       0       0       
      +0       0       0       0       0
  2101 ;;Total ram usage:        2 bytes
  2102 ;; Hardware stack levels used:    1
  2103 ;; Hardware stack levels required when called:    9
  2104 ;; This function calls:
  2105 ;;		_check_but_RB0
  2106 ;;		_print_hum_state2
  2107 ;;		_print_temp_state1
  2108 ;;		_set_defined_hum
  2109 ;;		_set_defined_temp
  2110 ;;		i2_LCDPutInst
  2111 ;; This function is called by:
  2112 ;;		_function_interrupt_TMR0
  2113 ;; This function uses a non-reentrant model
  2114 ;;
  2115                           
  2116                           	psect	text18
  2117  0012FC                     __ptext18:
  2118                           	opt callstack 0
  2119  0012FC                     _FSM:
  2120                           	opt callstack 16
  2121  0012FC                     
  2122                           ;solution01.c: 61:     switch (current_state){
  2123  0012FC  EF53  F00A         	goto	i2l2628
  2124  001300                     i2l2558:
  2125                           
  2126                           ; BSR set to: 0
  2127                           ;solution01.c: 148:             LCDPutInst(0x01);
  2128  001300  0E01               	movlw	1
  2129  001302  EC2D  F00F         	call	i2_LCDPutInst
  2130  001306                     
  2131                           ;solution01.c: 149:             LATD = 0x00;
  2132  001306  0E00               	movlw	0
  2133  001308  6E8C               	movwf	140,c	;volatile
  2134  00130A                     
  2135                           ;solution01.c: 150:             if (check_but_RB0()){
  2136  00130A  EC52  F010         	call	_check_but_RB0	;wreg free
  2137  00130E  5001               	movf	?_check_but_RB0^0,w,c
  2138  001310  1002               	iorwf	(?_check_but_RB0+1)^0,w,c
  2139  001312  B4D8               	btfsc	status,2,c
  2140  001314  EF8E  F009         	goto	i2u158_41
  2141  001318  EF90  F009         	goto	i2u158_40
  2142  00131C                     i2u158_41:
  2143  00131C  EF7D  F00A         	goto	i2l257
  2144  001320                     i2u158_40:
  2145  001320                     
  2146                           ;solution01.c: 151:                 current_state = state_01;
  2147  001320  0E01               	movlw	1
  2148  001322  6E5E               	movwf	_current_state^0,c
  2149  001324  EF7D  F00A         	goto	i2l257
  2150  001328                     i2l2566:
  2151                           
  2152                           ; BSR set to: 0
  2153                           ;solution01.c: 157:             print_temp_state1();
  2154  001328  EC2B  F011         	call	_print_temp_state1	;wreg free
  2155  00132C                     
  2156                           ;solution01.c: 158:             set_defined_temp();
  2157  00132C  ECCA  F010         	call	_set_defined_temp	;wreg free
  2158  001330                     
  2159                           ;solution01.c: 159:             if (check_but_RB0()){
  2160  001330  EC52  F010         	call	_check_but_RB0	;wreg free
  2161  001334  5001               	movf	?_check_but_RB0^0,w,c
  2162  001336  1002               	iorwf	(?_check_but_RB0+1)^0,w,c
  2163  001338  B4D8               	btfsc	status,2,c
  2164  00133A  EFA1  F009         	goto	i2u159_41
  2165  00133E  EFA3  F009         	goto	i2u159_40
  2166  001342                     i2u159_41:
  2167  001342  EF7D  F00A         	goto	i2l257
  2168  001346                     i2u159_40:
  2169  001346                     
  2170                           ;solution01.c: 160:                 current_state = state_02;
  2171  001346  0E02               	movlw	2
  2172  001348  6E5E               	movwf	_current_state^0,c
  2173  00134A                     
  2174                           ;solution01.c: 161:                 LCDPutInst(0x01);
  2175  00134A  0E01               	movlw	1
  2176  00134C  EC2D  F00F         	call	i2_LCDPutInst
  2177  001350  EF7D  F00A         	goto	i2l257
  2178  001354                     i2l2576:
  2179                           
  2180                           ; BSR set to: 0
  2181                           ;solution01.c: 167:             print_hum_state2();
  2182  001354  EC49  F011         	call	_print_hum_state2	;wreg free
  2183  001358                     
  2184                           ;solution01.c: 168:             set_defined_hum();
  2185  001358  ECEB  F010         	call	_set_defined_hum	;wreg free
  2186  00135C                     
  2187                           ;solution01.c: 169:             if (check_but_RB0()){
  2188  00135C  EC52  F010         	call	_check_but_RB0	;wreg free
  2189  001360  5001               	movf	?_check_but_RB0^0,w,c
  2190  001362  1002               	iorwf	(?_check_but_RB0+1)^0,w,c
  2191  001364  B4D8               	btfsc	status,2,c
  2192  001366  EFB7  F009         	goto	i2u160_41
  2193  00136A  EFB9  F009         	goto	i2u160_40
  2194  00136E                     i2u160_41:
  2195  00136E  EF7D  F00A         	goto	i2l257
  2196  001372                     i2u160_40:
  2197  001372                     
  2198                           ;solution01.c: 170:                 current_state = state_03;
  2199  001372  0E03               	movlw	3
  2200  001374  6E5E               	movwf	_current_state^0,c
  2201  001376                     
  2202                           ;solution01.c: 171:                 LCDPutInst(0x01);
  2203  001376  0E01               	movlw	1
  2204  001378  EC2D  F00F         	call	i2_LCDPutInst
  2205  00137C  EF7D  F00A         	goto	i2l257
  2206  001380                     i2l2586:
  2207                           
  2208                           ; BSR set to: 0
  2209                           ;solution01.c: 177:             LATD = 0b10100000;
  2210  001380  0EA0               	movlw	160
  2211  001382  6E8C               	movwf	140,c	;volatile
  2212  001384                     
  2213                           ; BSR set to: 0
  2214                           ;solution01.c: 178:             time_out_heater = time_out_heater + 1;
  2215  001384  0E01               	movlw	1
  2216  001386  256E               	addwf	_time_out_heater& (0+255),w,b
  2217  001388  6F6E               	movwf	_time_out_heater& (0+255),b
  2218  00138A  0E00               	movlw	0
  2219  00138C  216F               	addwfc	(_time_out_heater+1)& (0+255),w,b
  2220  00138E  6F6F               	movwf	(_time_out_heater+1)& (0+255),b
  2221  001390                     
  2222                           ; BSR set to: 0
  2223                           ;solution01.c: 179:             if (time_out_heater == 600){
  2224  001390  0E58               	movlw	88
  2225  001392  196E               	xorwf	_time_out_heater& (0+255),w,b
  2226  001394  E107               	bnz	i2u161_41
  2227  001396  0E02               	movlw	2
  2228  001398  196F               	xorwf	(_time_out_heater+1)& (0+255),w,b
  2229  00139A  A4D8               	btfss	status,2,c
  2230  00139C  EFD2  F009         	goto	i2u161_41
  2231  0013A0  EFD4  F009         	goto	i2u161_40
  2232  0013A4                     i2u161_41:
  2233  0013A4  EF7D  F00A         	goto	i2l257
  2234  0013A8                     i2u161_40:
  2235  0013A8                     
  2236                           ; BSR set to: 0
  2237                           ;solution01.c: 180:                 time_out_heater = 0;
  2238  0013A8  0E00               	movlw	0
  2239  0013AA  6F6F               	movwf	(_time_out_heater+1)& (0+255),b
  2240  0013AC  0E00               	movlw	0
  2241  0013AE  6F6E               	movwf	_time_out_heater& (0+255),b
  2242                           
  2243                           ;solution01.c: 181:                 current_state = state_04;
  2244  0013B0  0E04               	movlw	4
  2245  0013B2  6E5E               	movwf	_current_state^0,c
  2246  0013B4  EF7D  F00A         	goto	i2l257
  2247  0013B8                     i2l2594:
  2248                           
  2249                           ; BSR set to: 0
  2250                           ;solution01.c: 187:             if (RH_Integral > defined_hum){
  2251  0013B8  5175               	movf	_RH_Integral& (0+255),w,b
  2252  0013BA  5DC3               	subwf	_defined_hum& (0+255),w,b
  2253  0013BC  0E00               	movlw	0
  2254  0013BE  59C4               	subwfb	(_defined_hum+1)& (0+255),w,b
  2255  0013C0  B0D8               	btfsc	status,0,c
  2256  0013C2  EFE5  F009         	goto	i2u162_41
  2257  0013C6  EFE7  F009         	goto	i2u162_40
  2258  0013CA                     i2u162_41:
  2259  0013CA  EFEB  F009         	goto	i2l2598
  2260  0013CE                     i2u162_40:
  2261  0013CE                     
  2262                           ; BSR set to: 0
  2263                           ;solution01.c: 188:                 current_state = state_05;
  2264  0013CE  0E05               	movlw	5
  2265  0013D0  6E5E               	movwf	_current_state^0,c
  2266                           
  2267                           ;solution01.c: 189:                 break;
  2268  0013D2  EF7D  F00A         	goto	i2l257
  2269  0013D6                     i2l2598:
  2270                           
  2271                           ; BSR set to: 0
  2272                           ;solution01.c: 191:             if (RH_Integral <= defined_hum){
  2273  0013D6  5175               	movf	_RH_Integral& (0+255),w,b
  2274  0013D8  6FB1               	movwf	??_FSM& (0+255),b
  2275  0013DA  6BB2               	clrf	(??_FSM+1)& (0+255),b
  2276  0013DC  51B1               	movf	??_FSM& (0+255),w,b
  2277  0013DE  5DC3               	subwf	_defined_hum& (0+255),w,b
  2278  0013E0  51B2               	movf	(??_FSM+1)& (0+255),w,b
  2279  0013E2  59C4               	subwfb	(_defined_hum+1)& (0+255),w,b
  2280  0013E4  A0D8               	btfss	status,0,c
  2281  0013E6  EFF7  F009         	goto	i2u163_41
  2282  0013EA  EFF9  F009         	goto	i2u163_40
  2283  0013EE                     i2u163_41:
  2284  0013EE  EF7D  F00A         	goto	i2l257
  2285  0013F2                     i2u163_40:
  2286  0013F2                     
  2287                           ; BSR set to: 0
  2288                           ;solution01.c: 192:                 current_state = state_06;
  2289  0013F2  0E06               	movlw	6
  2290  0013F4  6E5E               	movwf	_current_state^0,c
  2291  0013F6  EF7D  F00A         	goto	i2l257
  2292  0013FA                     i2l2602:
  2293                           
  2294                           ; BSR set to: 0
  2295                           ;solution01.c: 198:             LATD = 0b01000000;
  2296  0013FA  0E40               	movlw	64
  2297  0013FC  6E8C               	movwf	140,c	;volatile
  2298  0013FE                     
  2299                           ; BSR set to: 0
  2300                           ;solution01.c: 199:             time_out_fan1 = time_out_fan1 + 1;
  2301  0013FE  0E01               	movlw	1
  2302  001400  256C               	addwf	_time_out_fan1& (0+255),w,b
  2303  001402  6F6C               	movwf	_time_out_fan1& (0+255),b
  2304  001404  0E00               	movlw	0
  2305  001406  216D               	addwfc	(_time_out_fan1+1)& (0+255),w,b
  2306  001408  6F6D               	movwf	(_time_out_fan1+1)& (0+255),b
  2307  00140A                     
  2308                           ; BSR set to: 0
  2309                           ;solution01.c: 200:             if ((time_out_fan1 >= 500) && (RH_Integral <= defined_hu
      +                          m)){
  2310  00140A  0EF4               	movlw	244
  2311  00140C  5D6C               	subwf	_time_out_fan1& (0+255),w,b
  2312  00140E  0E01               	movlw	1
  2313  001410  596D               	subwfb	(_time_out_fan1+1)& (0+255),w,b
  2314  001412  A0D8               	btfss	status,0,c
  2315  001414  EF0E  F00A         	goto	i2u164_41
  2316  001418  EF10  F00A         	goto	i2u164_40
  2317  00141C                     i2u164_41:
  2318  00141C  EF7D  F00A         	goto	i2l257
  2319  001420                     i2u164_40:
  2320  001420                     
  2321                           ; BSR set to: 0
  2322  001420  5175               	movf	_RH_Integral& (0+255),w,b
  2323  001422  6FB1               	movwf	??_FSM& (0+255),b
  2324  001424  6BB2               	clrf	(??_FSM+1)& (0+255),b
  2325  001426  51B1               	movf	??_FSM& (0+255),w,b
  2326  001428  5DC3               	subwf	_defined_hum& (0+255),w,b
  2327  00142A  51B2               	movf	(??_FSM+1)& (0+255),w,b
  2328  00142C  59C4               	subwfb	(_defined_hum+1)& (0+255),w,b
  2329  00142E  A0D8               	btfss	status,0,c
  2330  001430  EF1C  F00A         	goto	i2u165_41
  2331  001434  EF1E  F00A         	goto	i2u165_40
  2332  001438                     i2u165_41:
  2333  001438  EF7D  F00A         	goto	i2l257
  2334  00143C                     i2u165_40:
  2335  00143C                     
  2336                           ; BSR set to: 0
  2337                           ;solution01.c: 201:                 time_out_fan1 = 0;
  2338  00143C  0E00               	movlw	0
  2339  00143E  6F6D               	movwf	(_time_out_fan1+1)& (0+255),b
  2340  001440  0E00               	movlw	0
  2341  001442  6F6C               	movwf	_time_out_fan1& (0+255),b
  2342                           
  2343                           ;solution01.c: 202:                 current_state = state_06;
  2344  001444  0E06               	movlw	6
  2345  001446  6E5E               	movwf	_current_state^0,c
  2346  001448  EF7D  F00A         	goto	i2l257
  2347  00144C                     i2l2612:
  2348                           
  2349                           ; BSR set to: 0
  2350                           ;solution01.c: 208:             LATD = 0b00011000;
  2351  00144C  0E18               	movlw	24
  2352  00144E  6E8C               	movwf	140,c	;volatile
  2353  001450                     
  2354                           ; BSR set to: 0
  2355                           ;solution01.c: 209:             timeout_heatpump = timeout_heatpump + 1;
  2356  001450  0E01               	movlw	1
  2357  001452  256A               	addwf	_timeout_heatpump& (0+255),w,b
  2358  001454  6F6A               	movwf	_timeout_heatpump& (0+255),b
  2359  001456  0E00               	movlw	0
  2360  001458  216B               	addwfc	(_timeout_heatpump+1)& (0+255),w,b
  2361  00145A  6F6B               	movwf	(_timeout_heatpump+1)& (0+255),b
  2362  00145C                     
  2363                           ; BSR set to: 0
  2364                           ;solution01.c: 210:             if (timeout_heatpump == 500){
  2365  00145C  0EF4               	movlw	244
  2366  00145E  196A               	xorwf	_timeout_heatpump& (0+255),w,b
  2367  001460  E106               	bnz	i2u166_41
  2368  001462  056B               	decf	(_timeout_heatpump+1)& (0+255),w,b
  2369  001464  A4D8               	btfss	status,2,c
  2370  001466  EF37  F00A         	goto	i2u166_41
  2371  00146A  EF39  F00A         	goto	i2u166_40
  2372  00146E                     i2u166_41:
  2373  00146E  EF7D  F00A         	goto	i2l257
  2374  001472                     i2u166_40:
  2375  001472                     
  2376                           ; BSR set to: 0
  2377                           ;solution01.c: 211:                 timeout_heatpump = 0;
  2378  001472  0E00               	movlw	0
  2379  001474  6F6B               	movwf	(_timeout_heatpump+1)& (0+255),b
  2380  001476  0E00               	movlw	0
  2381  001478  6F6A               	movwf	_timeout_heatpump& (0+255),b
  2382  00147A                     
  2383                           ; BSR set to: 0
  2384                           ;solution01.c: 212:                 if (T_Integral >= defined_temp){
  2385  00147A  5173               	movf	_T_Integral& (0+255),w,b
  2386  00147C  6FB1               	movwf	??_FSM& (0+255),b
  2387  00147E  6BB2               	clrf	(??_FSM+1)& (0+255),b
  2388  001480  51C5               	movf	_defined_temp& (0+255),w,b
  2389  001482  5DB1               	subwf	??_FSM& (0+255),w,b
  2390  001484  51C6               	movf	(_defined_temp+1)& (0+255),w,b
  2391  001486  59B2               	subwfb	(??_FSM+1)& (0+255),w,b
  2392  001488  A0D8               	btfss	status,0,c
  2393  00148A  EF49  F00A         	goto	i2u167_41
  2394  00148E  EF4B  F00A         	goto	i2u167_40
  2395  001492                     i2u167_41:
  2396  001492  EF4F  F00A         	goto	i2l2624
  2397  001496                     i2u167_40:
  2398  001496                     
  2399                           ; BSR set to: 0
  2400                           ;solution01.c: 213:                     current_state = state_0;
  2401  001496  0E00               	movlw	0
  2402  001498  6E5E               	movwf	_current_state^0,c
  2403                           
  2404                           ;solution01.c: 214:                 }
  2405  00149A  EF7D  F00A         	goto	i2l257
  2406  00149E                     i2l2624:
  2407                           
  2408                           ; BSR set to: 0
  2409                           ;solution01.c: 216:                     current_state = state_03;
  2410  00149E  0E03               	movlw	3
  2411  0014A0  6E5E               	movwf	_current_state^0,c
  2412  0014A2  EF7D  F00A         	goto	i2l257
  2413  0014A6                     i2l2628:
  2414  0014A6  505E               	movf	_current_state^0,w,c
  2415  0014A8  0100               	movlb	0	; () banked
  2416  0014AA  6FB1               	movwf	??_FSM& (0+255),b
  2417  0014AC  6BB2               	clrf	(??_FSM+1)& (0+255),b
  2418                           
  2419                           ; Switch on 2 bytes has been partitioned into a top level switch of size 1, and 1 sub-sw
      +                          itches
  2420                           ; Switch size 1, requested type "simple"
  2421                           ; Number of cases is 1, Range of values is 0 to 0
  2422                           ; switch strategies available:
  2423                           ; Name         Instructions Cycles
  2424                           ; simple_byte            4     3 (average)
  2425                           ;	Chosen strategy is simple_byte
  2426  0014AE  51B2               	movf	(??_FSM+1)& (0+255),w,b
  2427  0014B0  0A00               	xorlw	0	; case 0
  2428  0014B2  B4D8               	btfsc	status,2,c
  2429  0014B4  EF5E  F00A         	goto	i2l2732
  2430  0014B8  EF7D  F00A         	goto	i2l257
  2431  0014BC                     i2l2732:
  2432                           
  2433                           ; BSR set to: 0
  2434                           ; Switch size 1, requested type "simple"
  2435                           ; Number of cases is 7, Range of values is 0 to 6
  2436                           ; switch strategies available:
  2437                           ; Name         Instructions Cycles
  2438                           ; simple_byte           22    12 (average)
  2439                           ;	Chosen strategy is simple_byte
  2440  0014BC  51B1               	movf	??_FSM& (0+255),w,b
  2441  0014BE  0A00               	xorlw	0	; case 0
  2442  0014C0  B4D8               	btfsc	status,2,c
  2443  0014C2  EF80  F009         	goto	i2l2558
  2444  0014C6  0A01               	xorlw	1	; case 1
  2445  0014C8  B4D8               	btfsc	status,2,c
  2446  0014CA  EF94  F009         	goto	i2l2566
  2447  0014CE  0A03               	xorlw	3	; case 2
  2448  0014D0  B4D8               	btfsc	status,2,c
  2449  0014D2  EFAA  F009         	goto	i2l2576
  2450  0014D6  0A01               	xorlw	1	; case 3
  2451  0014D8  B4D8               	btfsc	status,2,c
  2452  0014DA  EFC0  F009         	goto	i2l2586
  2453  0014DE  0A07               	xorlw	7	; case 4
  2454  0014E0  B4D8               	btfsc	status,2,c
  2455  0014E2  EFDC  F009         	goto	i2l2594
  2456  0014E6  0A01               	xorlw	1	; case 5
  2457  0014E8  B4D8               	btfsc	status,2,c
  2458  0014EA  EFFD  F009         	goto	i2l2602
  2459  0014EE  0A03               	xorlw	3	; case 6
  2460  0014F0  B4D8               	btfsc	status,2,c
  2461  0014F2  EF26  F00A         	goto	i2l2612
  2462  0014F6  EF7D  F00A         	goto	i2l257
  2463  0014FA                     i2l257:
  2464  0014FA  0012               	return		;funcret
  2465  0014FC                     __end_of_FSM:
  2466                           	opt callstack 0
  2467                           
  2468 ;; *************** function _set_defined_temp *****************
  2469 ;; Defined at:
  2470 ;;		line 28 in file "solution01.c"
  2471 ;; Parameters:    Size  Location     Type
  2472 ;;		None
  2473 ;; Auto vars:     Size  Location     Type
  2474 ;;		None
  2475 ;; Return value:  Size  Location     Type
  2476 ;;                  1    wreg      void 
  2477 ;; Registers used:
  2478 ;;		wreg, status,2, status,0, cstack
  2479 ;; Tracked objects:
  2480 ;;		On entry : 0/0
  2481 ;;		On exit  : 0/0
  2482 ;;		Unchanged: 0/0
  2483 ;; Data sizes:     COMRAM   BANK0   BANK1   BANK2   BANK3   BANK4   BANK5   BANK6   BANK7   BANK8   BANK9  BANK10  BANK1
      +1  BANK12  BANK13  BANK14  BANK15
  2484 ;;      Params:         0       0       0       0       0       0       0       0       0       0       0       0       
      +0       0       0       0       0
  2485 ;;      Locals:         0       0       0       0       0       0       0       0       0       0       0       0       
      +0       0       0       0       0
  2486 ;;      Temps:          0       0       0       0       0       0       0       0       0       0       0       0       
      +0       0       0       0       0
  2487 ;;      Totals:         0       0       0       0       0       0       0       0       0       0       0       0       
      +0       0       0       0       0
  2488 ;;Total ram usage:        0 bytes
  2489 ;; Hardware stack levels used:    1
  2490 ;; Hardware stack levels required when called:    1
  2491 ;; This function calls:
  2492 ;;		_check_but_RA5
  2493 ;; This function is called by:
  2494 ;;		_FSM
  2495 ;; This function uses a non-reentrant model
  2496 ;;
  2497                           
  2498                           	psect	text19
  2499  002194                     __ptext19:
  2500                           	opt callstack 0
  2501  002194                     _set_defined_temp:
  2502                           	opt callstack 23
  2503  002194                     
  2504                           ;solution01.c: 29:     if (check_but_RA5()){
  2505  002194  EC25  F010         	call	_check_but_RA5	;wreg free
  2506  002198  5001               	movf	?_check_but_RA5^0,w,c
  2507  00219A  1002               	iorwf	(?_check_but_RA5+1)^0,w,c
  2508  00219C  B4D8               	btfsc	status,2,c
  2509  00219E  EFD3  F010         	goto	i2u147_41
  2510  0021A2  EFD5  F010         	goto	i2u147_40
  2511  0021A6                     i2u147_41:
  2512  0021A6  EFEA  F010         	goto	i2l224
  2513  0021AA                     i2u147_40:
  2514  0021AA                     
  2515                           ;solution01.c: 30:         defined_temp = defined_temp + 1;
  2516  0021AA  0E01               	movlw	1
  2517  0021AC  0100               	movlb	0	; () banked
  2518  0021AE  25C5               	addwf	_defined_temp& (0+255),w,b
  2519  0021B0  6FC5               	movwf	_defined_temp& (0+255),b
  2520  0021B2  0E00               	movlw	0
  2521  0021B4  21C6               	addwfc	(_defined_temp+1)& (0+255),w,b
  2522  0021B6  6FC6               	movwf	(_defined_temp+1)& (0+255),b
  2523                           
  2524                           ;solution01.c: 31:         if (defined_temp == 99){
  2525  0021B8  0E63               	movlw	99
  2526  0021BA  19C5               	xorwf	_defined_temp& (0+255),w,b
  2527  0021BC  11C6               	iorwf	(_defined_temp+1)& (0+255),w,b
  2528  0021BE  A4D8               	btfss	status,2,c
  2529  0021C0  EFE4  F010         	goto	i2u148_41
  2530  0021C4  EFE6  F010         	goto	i2u148_40
  2531  0021C8                     i2u148_41:
  2532  0021C8  EFEA  F010         	goto	i2l224
  2533  0021CC                     i2u148_40:
  2534  0021CC                     
  2535                           ; BSR set to: 0
  2536                           ;solution01.c: 32:             defined_temp = 25;
  2537  0021CC  0E00               	movlw	0
  2538  0021CE  6FC6               	movwf	(_defined_temp+1)& (0+255),b
  2539  0021D0  0E19               	movlw	25
  2540  0021D2  6FC5               	movwf	_defined_temp& (0+255),b
  2541  0021D4                     i2l224:
  2542  0021D4  0012               	return		;funcret
  2543  0021D6                     __end_of_set_defined_temp:
  2544                           	opt callstack 0
  2545                           
  2546 ;; *************** function _set_defined_hum *****************
  2547 ;; Defined at:
  2548 ;;		line 44 in file "solution01.c"
  2549 ;; Parameters:    Size  Location     Type
  2550 ;;		None
  2551 ;; Auto vars:     Size  Location     Type
  2552 ;;		None
  2553 ;; Return value:  Size  Location     Type
  2554 ;;                  1    wreg      void 
  2555 ;; Registers used:
  2556 ;;		wreg, status,2, status,0, cstack
  2557 ;; Tracked objects:
  2558 ;;		On entry : 0/0
  2559 ;;		On exit  : 0/0
  2560 ;;		Unchanged: 0/0
  2561 ;; Data sizes:     COMRAM   BANK0   BANK1   BANK2   BANK3   BANK4   BANK5   BANK6   BANK7   BANK8   BANK9  BANK10  BANK1
      +1  BANK12  BANK13  BANK14  BANK15
  2562 ;;      Params:         0       0       0       0       0       0       0       0       0       0       0       0       
      +0       0       0       0       0
  2563 ;;      Locals:         0       0       0       0       0       0       0       0       0       0       0       0       
      +0       0       0       0       0
  2564 ;;      Temps:          0       0       0       0       0       0       0       0       0       0       0       0       
      +0       0       0       0       0
  2565 ;;      Totals:         0       0       0       0       0       0       0       0       0       0       0       0       
      +0       0       0       0       0
  2566 ;;Total ram usage:        0 bytes
  2567 ;; Hardware stack levels used:    1
  2568 ;; Hardware stack levels required when called:    1
  2569 ;; This function calls:
  2570 ;;		_check_but_RA5
  2571 ;; This function is called by:
  2572 ;;		_FSM
  2573 ;; This function uses a non-reentrant model
  2574 ;;
  2575                           
  2576                           	psect	text20
  2577  0021D6                     __ptext20:
  2578                           	opt callstack 0
  2579  0021D6                     _set_defined_hum:
  2580                           	opt callstack 23
  2581  0021D6                     
  2582                           ;solution01.c: 45:     if (check_but_RA5()){
  2583  0021D6  EC25  F010         	call	_check_but_RA5	;wreg free
  2584  0021DA  5001               	movf	?_check_but_RA5^0,w,c
  2585  0021DC  1002               	iorwf	(?_check_but_RA5+1)^0,w,c
  2586  0021DE  B4D8               	btfsc	status,2,c
  2587  0021E0  EFF4  F010         	goto	i2u149_41
  2588  0021E4  EFF6  F010         	goto	i2u149_40
  2589  0021E8                     i2u149_41:
  2590  0021E8  EF0A  F011         	goto	i2l232
  2591  0021EC                     i2u149_40:
  2592  0021EC                     
  2593                           ;solution01.c: 46:         defined_hum = defined_hum - 1;
  2594  0021EC  0EFF               	movlw	255
  2595  0021EE  0100               	movlb	0	; () banked
  2596  0021F0  25C3               	addwf	_defined_hum& (0+255),w,b
  2597  0021F2  6FC3               	movwf	_defined_hum& (0+255),b
  2598  0021F4  0EFF               	movlw	255
  2599  0021F6  21C4               	addwfc	(_defined_hum+1)& (0+255),w,b
  2600  0021F8  6FC4               	movwf	(_defined_hum+1)& (0+255),b
  2601                           
  2602                           ;solution01.c: 47:         if (defined_temp == 0){
  2603  0021FA  51C5               	movf	_defined_temp& (0+255),w,b
  2604  0021FC  11C6               	iorwf	(_defined_temp+1)& (0+255),w,b
  2605  0021FE  A4D8               	btfss	status,2,c
  2606  002200  EF04  F011         	goto	i2u150_41
  2607  002204  EF06  F011         	goto	i2u150_40
  2608  002208                     i2u150_41:
  2609  002208  EF0A  F011         	goto	i2l232
  2610  00220C                     i2u150_40:
  2611  00220C                     
  2612                           ; BSR set to: 0
  2613                           ;solution01.c: 48:             defined_temp = 72;
  2614  00220C  0E00               	movlw	0
  2615  00220E  6FC6               	movwf	(_defined_temp+1)& (0+255),b
  2616  002210  0E48               	movlw	72
  2617  002212  6FC5               	movwf	_defined_temp& (0+255),b
  2618  002214                     i2l232:
  2619  002214  0012               	return		;funcret
  2620  002216                     __end_of_set_defined_hum:
  2621                           	opt callstack 0
  2622                           
  2623 ;; *************** function _check_but_RA5 *****************
  2624 ;; Defined at:
  2625 ;;		line 15 in file "solution01.c"
  2626 ;; Parameters:    Size  Location     Type
  2627 ;;		None
  2628 ;; Auto vars:     Size  Location     Type
  2629 ;;		None
  2630 ;; Return value:  Size  Location     Type
  2631 ;;                  2    0[COMRAM] int 
  2632 ;; Registers used:
  2633 ;;		wreg, status,2
  2634 ;; Tracked objects:
  2635 ;;		On entry : 0/0
  2636 ;;		On exit  : 0/0
  2637 ;;		Unchanged: 0/0
  2638 ;; Data sizes:     COMRAM   BANK0   BANK1   BANK2   BANK3   BANK4   BANK5   BANK6   BANK7   BANK8   BANK9  BANK10  BANK1
      +1  BANK12  BANK13  BANK14  BANK15
  2639 ;;      Params:         2       0       0       0       0       0       0       0       0       0       0       0       
      +0       0       0       0       0
  2640 ;;      Locals:         0       0       0       0       0       0       0       0       0       0       0       0       
      +0       0       0       0       0
  2641 ;;      Temps:          0       0       0       0       0       0       0       0       0       0       0       0       
      +0       0       0       0       0
  2642 ;;      Totals:         2       0       0       0       0       0       0       0       0       0       0       0       
      +0       0       0       0       0
  2643 ;;Total ram usage:        2 bytes
  2644 ;; Hardware stack levels used:    1
  2645 ;; This function calls:
  2646 ;;		Nothing
  2647 ;; This function is called by:
  2648 ;;		_set_defined_temp
  2649 ;;		_set_defined_hum
  2650 ;; This function uses a non-reentrant model
  2651 ;;
  2652                           
  2653                           	psect	text21
  2654  00204A                     __ptext21:
  2655                           	opt callstack 0
  2656  00204A                     _check_but_RA5:
  2657                           	opt callstack 23
  2658  00204A                     
  2659                           ;solution01.c: 16:     if (PORTAbits.RA5 != 0){
  2660  00204A  AA80               	btfss	128,5,c	;volatile
  2661  00204C  EF2A  F010         	goto	i2u138_41
  2662  002050  EF2C  F010         	goto	i2u138_40
  2663  002054                     i2u138_41:
  2664  002054  EF35  F010         	goto	i2l217
  2665  002058                     i2u138_40:
  2666  002058                     
  2667                           ;solution01.c: 17:         flag_RA5 = 0;
  2668  002058  0E00               	movlw	0
  2669  00205A  0100               	movlb	0	; () banked
  2670  00205C  6F78               	movwf	_flag_RA5& (0+255),b
  2671                           
  2672                           ;solution01.c: 18:         return 0;
  2673  00205E  0E00               	movlw	0
  2674  002060  6E02               	movwf	(?_check_but_RA5+1)^0,c
  2675  002062  0E00               	movlw	0
  2676  002064  6E01               	movwf	?_check_but_RA5^0,c
  2677  002066  EF51  F010         	goto	i2l218
  2678  00206A                     i2l217:
  2679                           
  2680                           ;solution01.c: 20:     if ((PORTAbits.RA5 == 0) && (flag_RA5 == 0)){
  2681  00206A  BA80               	btfsc	128,5,c	;volatile
  2682  00206C  EF3A  F010         	goto	i2u139_41
  2683  002070  EF3C  F010         	goto	i2u139_40
  2684  002074                     i2u139_41:
  2685  002074  EF4D  F010         	goto	i2l2352
  2686  002078                     i2u139_40:
  2687  002078  0100               	movlb	0	; () banked
  2688  00207A  5178               	movf	_flag_RA5& (0+255),w,b
  2689  00207C  A4D8               	btfss	status,2,c
  2690  00207E  EF43  F010         	goto	i2u140_41
  2691  002082  EF45  F010         	goto	i2u140_40
  2692  002086                     i2u140_41:
  2693  002086  EF4D  F010         	goto	i2l2352
  2694  00208A                     i2u140_40:
  2695  00208A                     
  2696                           ; BSR set to: 0
  2697                           ;solution01.c: 21:         flag_RA5 = 1;
  2698  00208A  0E01               	movlw	1
  2699  00208C  6F78               	movwf	_flag_RA5& (0+255),b
  2700                           
  2701                           ;solution01.c: 22:         return 1;
  2702  00208E  0E00               	movlw	0
  2703  002090  6E02               	movwf	(?_check_but_RA5+1)^0,c
  2704  002092  0E01               	movlw	1
  2705  002094  6E01               	movwf	?_check_but_RA5^0,c
  2706  002096  EF51  F010         	goto	i2l218
  2707  00209A                     i2l2352:
  2708                           
  2709                           ;solution01.c: 24:     return 0;
  2710  00209A  0E00               	movlw	0
  2711  00209C  6E02               	movwf	(?_check_but_RA5+1)^0,c
  2712  00209E  0E00               	movlw	0
  2713  0020A0  6E01               	movwf	?_check_but_RA5^0,c
  2714  0020A2                     i2l218:
  2715  0020A2  0012               	return		;funcret
  2716  0020A4                     __end_of_check_but_RA5:
  2717                           	opt callstack 0
  2718                           
  2719 ;; *************** function _print_temp_state1 *****************
  2720 ;; Defined at:
  2721 ;;		line 37 in file "solution01.c"
  2722 ;; Parameters:    Size  Location     Type
  2723 ;;		None
  2724 ;; Auto vars:     Size  Location     Type
  2725 ;;		None
  2726 ;; Return value:  Size  Location     Type
  2727 ;;                  1    wreg      void 
  2728 ;; Registers used:
  2729 ;;		wreg, fsr1l, fsr1h, fsr2l, fsr2h, status,2, status,0, tblptrl, tblptrh, tblptru, cstack
  2730 ;; Tracked objects:
  2731 ;;		On entry : 0/0
  2732 ;;		On exit  : 0/0
  2733 ;;		Unchanged: 0/0
  2734 ;; Data sizes:     COMRAM   BANK0   BANK1   BANK2   BANK3   BANK4   BANK5   BANK6   BANK7   BANK8   BANK9  BANK10  BANK1
      +1  BANK12  BANK13  BANK14  BANK15
  2735 ;;      Params:         0       0       0       0       0       0       0       0       0       0       0       0       
      +0       0       0       0       0
  2736 ;;      Locals:         0       0       0       0       0       0       0       0       0       0       0       0       
      +0       0       0       0       0
  2737 ;;      Temps:          0       0       0       0       0       0       0       0       0       0       0       0       
      +0       0       0       0       0
  2738 ;;      Totals:         0       0       0       0       0       0       0       0       0       0       0       0       
      +0       0       0       0       0
  2739 ;;Total ram usage:        0 bytes
  2740 ;; Hardware stack levels used:    1
  2741 ;; Hardware stack levels required when called:    8
  2742 ;; This function calls:
  2743 ;;		_LCDPutStr
  2744 ;;		_sprintf
  2745 ;;		i2_LCDPutInst
  2746 ;; This function is called by:
  2747 ;;		_FSM
  2748 ;; This function uses a non-reentrant model
  2749 ;;
  2750                           
  2751                           	psect	text22
  2752  002256                     __ptext22:
  2753                           	opt callstack 0
  2754  002256                     _print_temp_state1:
  2755                           	opt callstack 16
  2756  002256                     
  2757                           ;solution01.c: 38:     LCDPutInst(0x80);
  2758  002256  0E80               	movlw	128
  2759  002258  EC2D  F00F         	call	i2_LCDPutInst
  2760  00225C                     
  2761                           ;solution01.c: 39:     LCDPutStr("Set Temp: ");
  2762  00225C  0E01               	movlw	low STR_1
  2763  00225E  6E08               	movwf	LCDPutStr@ptr^0,c
  2764  002260  0E10               	movlw	high STR_1
  2765  002262  6E09               	movwf	(LCDPutStr@ptr+1)^0,c
  2766  002264  ECC6  F00F         	call	_LCDPutStr	;wreg free
  2767  002268                     
  2768                           ;solution01.c: 40:     sprintf(defined_value_arr, "%d", defined_temp);
  2769  002268  0EA4               	movlw	low _defined_value_arr
  2770  00226A  6E58               	movwf	sprintf@s^0,c
  2771  00226C  0E00               	movlw	high _defined_value_arr
  2772  00226E  6E59               	movwf	(sprintf@s+1)^0,c
  2773  002270  0E16               	movlw	low STR_2
  2774  002272  6E5A               	movwf	sprintf@fmt^0,c
  2775  002274  0E10               	movlw	high STR_2
  2776  002276  6E5B               	movwf	(sprintf@fmt+1)^0,c
  2777  002278  C0C5  F05C         	movff	_defined_temp,?_sprintf+4
  2778  00227C  C0C6  F05D         	movff	_defined_temp+1,?_sprintf+5
  2779  002280  EC7F  F010         	call	_sprintf	;wreg free
  2780  002284                     
  2781                           ;solution01.c: 41:     LCDPutStr(defined_value_arr);
  2782  002284  0EA4               	movlw	low _defined_value_arr
  2783  002286  6E08               	movwf	LCDPutStr@ptr^0,c
  2784  002288  0E00               	movlw	high _defined_value_arr
  2785  00228A  6E09               	movwf	(LCDPutStr@ptr+1)^0,c
  2786  00228C  ECC6  F00F         	call	_LCDPutStr	;wreg free
  2787  002290  0012               	return		;funcret
  2788  002292                     __end_of_print_temp_state1:
  2789                           	opt callstack 0
  2790                           
  2791 ;; *************** function _print_hum_state2 *****************
  2792 ;; Defined at:
  2793 ;;		line 53 in file "solution01.c"
  2794 ;; Parameters:    Size  Location     Type
  2795 ;;		None
  2796 ;; Auto vars:     Size  Location     Type
  2797 ;;		None
  2798 ;; Return value:  Size  Location     Type
  2799 ;;                  1    wreg      void 
  2800 ;; Registers used:
  2801 ;;		wreg, fsr1l, fsr1h, fsr2l, fsr2h, status,2, status,0, tblptrl, tblptrh, tblptru, cstack
  2802 ;; Tracked objects:
  2803 ;;		On entry : 0/0
  2804 ;;		On exit  : 0/0
  2805 ;;		Unchanged: 0/0
  2806 ;; Data sizes:     COMRAM   BANK0   BANK1   BANK2   BANK3   BANK4   BANK5   BANK6   BANK7   BANK8   BANK9  BANK10  BANK1
      +1  BANK12  BANK13  BANK14  BANK15
  2807 ;;      Params:         0       0       0       0       0       0       0       0       0       0       0       0       
      +0       0       0       0       0
  2808 ;;      Locals:         0       0       0       0       0       0       0       0       0       0       0       0       
      +0       0       0       0       0
  2809 ;;      Temps:          0       0       0       0       0       0       0       0       0       0       0       0       
      +0       0       0       0       0
  2810 ;;      Totals:         0       0       0       0       0       0       0       0       0       0       0       0       
      +0       0       0       0       0
  2811 ;;Total ram usage:        0 bytes
  2812 ;; Hardware stack levels used:    1
  2813 ;; Hardware stack levels required when called:    8
  2814 ;; This function calls:
  2815 ;;		_LCDPutStr
  2816 ;;		_sprintf
  2817 ;;		i2_LCDPutInst
  2818 ;; This function is called by:
  2819 ;;		_FSM
  2820 ;; This function uses a non-reentrant model
  2821 ;;
  2822                           
  2823                           	psect	text23
  2824  002292                     __ptext23:
  2825                           	opt callstack 0
  2826  002292                     _print_hum_state2:
  2827                           	opt callstack 16
  2828  002292                     
  2829                           ;solution01.c: 54:     LCDPutInst(0x80);
  2830  002292  0E80               	movlw	128
  2831  002294  EC2D  F00F         	call	i2_LCDPutInst
  2832  002298                     
  2833                           ;solution01.c: 55:     LCDPutStr("Set Hum: ");
  2834  002298  0E0C               	movlw	low STR_3
  2835  00229A  6E08               	movwf	LCDPutStr@ptr^0,c
  2836  00229C  0E10               	movlw	high STR_3
  2837  00229E  6E09               	movwf	(LCDPutStr@ptr+1)^0,c
  2838  0022A0  ECC6  F00F         	call	_LCDPutStr	;wreg free
  2839  0022A4                     
  2840                           ;solution01.c: 56:     sprintf(defined_value_arr, "%d", defined_hum);
  2841  0022A4  0EA4               	movlw	low _defined_value_arr
  2842  0022A6  6E58               	movwf	sprintf@s^0,c
  2843  0022A8  0E00               	movlw	high _defined_value_arr
  2844  0022AA  6E59               	movwf	(sprintf@s+1)^0,c
  2845  0022AC  0E16               	movlw	low STR_2
  2846  0022AE  6E5A               	movwf	sprintf@fmt^0,c
  2847  0022B0  0E10               	movlw	high STR_2
  2848  0022B2  6E5B               	movwf	(sprintf@fmt+1)^0,c
  2849  0022B4  C0C3  F05C         	movff	_defined_hum,?_sprintf+4
  2850  0022B8  C0C4  F05D         	movff	_defined_hum+1,?_sprintf+5
  2851  0022BC  EC7F  F010         	call	_sprintf	;wreg free
  2852  0022C0                     
  2853                           ;solution01.c: 57:     LCDPutStr(defined_value_arr);
  2854  0022C0  0EA4               	movlw	low _defined_value_arr
  2855  0022C2  6E08               	movwf	LCDPutStr@ptr^0,c
  2856  0022C4  0E00               	movlw	high _defined_value_arr
  2857  0022C6  6E09               	movwf	(LCDPutStr@ptr+1)^0,c
  2858  0022C8  ECC6  F00F         	call	_LCDPutStr	;wreg free
  2859  0022CC  0012               	return		;funcret
  2860  0022CE                     __end_of_print_hum_state2:
  2861                           	opt callstack 0
  2862                           
  2863 ;; *************** function i2_LCDPutInst *****************
  2864 ;; Defined at:
  2865 ;;		line 137 in file "setup_LCD_2.c"
  2866 ;; Parameters:    Size  Location     Type
  2867 ;;  ch              1    wreg     unsigned char 
  2868 ;; Auto vars:     Size  Location     Type
  2869 ;;  ch              1    6[COMRAM] unsigned char 
  2870 ;; Return value:  Size  Location     Type
  2871 ;;                  1    wreg      void 
  2872 ;; Registers used:
  2873 ;;		wreg, status,2, status,0, cstack
  2874 ;; Tracked objects:
  2875 ;;		On entry : 0/0
  2876 ;;		On exit  : 0/0
  2877 ;;		Unchanged: 0/0
  2878 ;; Data sizes:     COMRAM   BANK0   BANK1   BANK2   BANK3   BANK4   BANK5   BANK6   BANK7   BANK8   BANK9  BANK10  BANK1
      +1  BANK12  BANK13  BANK14  BANK15
  2879 ;;      Params:         0       0       0       0       0       0       0       0       0       0       0       0       
      +0       0       0       0       0
  2880 ;;      Locals:         1       0       0       0       0       0       0       0       0       0       0       0       
      +0       0       0       0       0
  2881 ;;      Temps:          1       0       0       0       0       0       0       0       0       0       0       0       
      +0       0       0       0       0
  2882 ;;      Totals:         2       0       0       0       0       0       0       0       0       0       0       0       
      +0       0       0       0       0
  2883 ;;Total ram usage:        2 bytes
  2884 ;; Hardware stack levels used:    1
  2885 ;; Hardware stack levels required when called:    2
  2886 ;; This function calls:
  2887 ;;		i2_WritePort_BBSPI
  2888 ;; This function is called by:
  2889 ;;		_print_temp_state1
  2890 ;;		_print_hum_state2
  2891 ;;		_FSM
  2892 ;;		_print_DHT11
  2893 ;; This function uses a non-reentrant model
  2894 ;;
  2895                           
  2896                           	psect	text24
  2897  001E5A                     __ptext24:
  2898                           	opt callstack 0
  2899  001E5A                     i2_LCDPutInst:
  2900                           	opt callstack 22
  2901                           
  2902                           ;incstack = 0
  2903                           ;i2LCDPutInst@ch stored from wreg
  2904  001E5A  6E07               	movwf	i2LCDPutInst@ch^0,c
  2905  001E5C                     
  2906                           ;setup_LCD_2.c: 137: void LCDPutInst (unsigned char ch);setup_LCD_2.c: 138: {;setup_LCD_
      +                          2.c: 139:     _delay((unsigned long)((5)*(10000000/4000.0)));
  2907  001E5C  0E11               	movlw	17
  2908  001E5E  6E06               	movwf	??i2_LCDPutInst^0,c
  2909  001E60  0E3A               	movlw	58
  2910  001E62                     i2u184_47:
  2911  001E62  2EE8               	decfsz	wreg,f,c
  2912  001E64  D7FE               	bra	i2u184_47
  2913  001E66  2E06               	decfsz	??i2_LCDPutInst^0,f,c
  2914  001E68  D7FC               	bra	i2u184_47
  2915  001E6A  D000               	nop2	
  2916  001E6C                     
  2917                           ;setup_LCD_2.c: 140:     WritePort_BBSPI (0x12, 0x00);
  2918  001E6C  0E00               	movlw	0
  2919  001E6E  6E04               	movwf	i2WritePort_BBSPI@a^0,c
  2920  001E70  0E12               	movlw	18
  2921  001E72  EC0A  F012         	call	i2_WritePort_BBSPI
  2922  001E76                     
  2923                           ;setup_LCD_2.c: 141:     _delay((unsigned long)((1)*(10000000/4000.0)));
  2924  001E76  0E04               	movlw	4
  2925  001E78  6E06               	movwf	??i2_LCDPutInst^0,c
  2926  001E7A  0E3E               	movlw	62
  2927  001E7C                     i2u185_47:
  2928  001E7C  2EE8               	decfsz	wreg,f,c
  2929  001E7E  D7FE               	bra	i2u185_47
  2930  001E80  2E06               	decfsz	??i2_LCDPutInst^0,f,c
  2931  001E82  D7FC               	bra	i2u185_47
  2932  001E84                     
  2933                           ;setup_LCD_2.c: 142:     WritePort_BBSPI (0x13, ch);
  2934  001E84  C007  F004         	movff	i2LCDPutInst@ch,i2WritePort_BBSPI@a
  2935  001E88  0E13               	movlw	19
  2936  001E8A  EC0A  F012         	call	i2_WritePort_BBSPI
  2937  001E8E                     
  2938                           ;setup_LCD_2.c: 143:     _delay((unsigned long)((1)*(10000000/4000.0)));
  2939  001E8E  0E04               	movlw	4
  2940  001E90  6E06               	movwf	??i2_LCDPutInst^0,c
  2941  001E92  0E3E               	movlw	62
  2942  001E94                     i2u186_47:
  2943  001E94  2EE8               	decfsz	wreg,f,c
  2944  001E96  D7FE               	bra	i2u186_47
  2945  001E98  2E06               	decfsz	??i2_LCDPutInst^0,f,c
  2946  001E9A  D7FC               	bra	i2u186_47
  2947  001E9C                     
  2948                           ;setup_LCD_2.c: 144:     WritePort_BBSPI (0x12,0x40);
  2949  001E9C  0E40               	movlw	64
  2950  001E9E  6E04               	movwf	i2WritePort_BBSPI@a^0,c
  2951  001EA0  0E12               	movlw	18
  2952  001EA2  EC0A  F012         	call	i2_WritePort_BBSPI
  2953  001EA6                     
  2954                           ;setup_LCD_2.c: 145:     _delay((unsigned long)((1)*(10000000/4000.0)));
  2955  001EA6  0E04               	movlw	4
  2956  001EA8  6E06               	movwf	??i2_LCDPutInst^0,c
  2957  001EAA  0E3E               	movlw	62
  2958  001EAC                     i2u187_47:
  2959  001EAC  2EE8               	decfsz	wreg,f,c
  2960  001EAE  D7FE               	bra	i2u187_47
  2961  001EB0  2E06               	decfsz	??i2_LCDPutInst^0,f,c
  2962  001EB2  D7FC               	bra	i2u187_47
  2963  001EB4                     
  2964                           ;setup_LCD_2.c: 146:     WritePort_BBSPI (0x12, 0x00);
  2965  001EB4  0E00               	movlw	0
  2966  001EB6  6E04               	movwf	i2WritePort_BBSPI@a^0,c
  2967  001EB8  0E12               	movlw	18
  2968  001EBA  EC0A  F012         	call	i2_WritePort_BBSPI
  2969  001EBE  0012               	return		;funcret
  2970  001EC0                     __end_ofi2_LCDPutInst:
  2971                           	opt callstack 0
  2972                           
  2973 ;; *************** function _sprintf *****************
  2974 ;; Defined at:
  2975 ;;		line 9 in file "D:\hk191dhbknam3hk1\e_vi_xu_ly_vi_dieu_khien_\software_needed_for_lab\folder_caidat\Microchip\xc8\v2
      +.10\pic\sources\c99\common\nf_sprintf.c"
  2976 ;; Parameters:    Size  Location     Type
  2977 ;;  s               2   87[COMRAM] PTR unsigned char 
  2978 ;;		 -> value(10), defined_value_arr(3), 
  2979 ;;  fmt             2   89[COMRAM] PTR const unsigned char 
  2980 ;;		 -> STR_6(3), STR_5(3), STR_4(3), STR_2(3), 
  2981 ;; Auto vars:     Size  Location     Type
  2982 ;;  f               6    4[BANK0 ] struct _IO_FILE
  2983 ;;  ap              2    2[BANK0 ] PTR void [1]
  2984 ;;		 -> ?_sprintf(2), 
  2985 ;;  ret             2    0        int 
  2986 ;; Return value:  Size  Location     Type
  2987 ;;                  2   87[COMRAM] int 
  2988 ;; Registers used:
  2989 ;;		wreg, fsr1l, fsr1h, fsr2l, fsr2h, status,2, status,0, tblptrl, tblptrh, tblptru, cstack
  2990 ;; Tracked objects:
  2991 ;;		On entry : 0/0
  2992 ;;		On exit  : 0/0
  2993 ;;		Unchanged: 0/0
  2994 ;; Data sizes:     COMRAM   BANK0   BANK1   BANK2   BANK3   BANK4   BANK5   BANK6   BANK7   BANK8   BANK9  BANK10  BANK1
      +1  BANK12  BANK13  BANK14  BANK15
  2995 ;;      Params:         6       0       0       0       0       0       0       0       0       0       0       0       
      +0       0       0       0       0
  2996 ;;      Locals:         0      10       0       0       0       0       0       0       0       0       0       0       
      +0       0       0       0       0
  2997 ;;      Temps:          0       0       0       0       0       0       0       0       0       0       0       0       
      +0       0       0       0       0
  2998 ;;      Totals:         6      10       0       0       0       0       0       0       0       0       0       0       
      +0       0       0       0       0
  2999 ;;Total ram usage:       16 bytes
  3000 ;; Hardware stack levels used:    1
  3001 ;; Hardware stack levels required when called:    7
  3002 ;; This function calls:
  3003 ;;		_vfprintf
  3004 ;; This function is called by:
  3005 ;;		_print_temp_state1
  3006 ;;		_print_hum_state2
  3007 ;;		_print_DHT11
  3008 ;; This function uses a non-reentrant model
  3009 ;;
  3010                           
  3011                           	psect	text25
  3012  0020FE                     __ptext25:
  3013                           	opt callstack 0
  3014  0020FE                     _sprintf:
  3015                           	opt callstack 17
  3016  0020FE  0E5C               	movlw	low (?_sprintf+4)
  3017  002100  0100               	movlb	0	; () banked
  3018  002102  6FA9               	movwf	sprintf@ap& (0+255),b
  3019  002104  0E00               	movlw	high (?_sprintf+4)
  3020  002106  6FAA               	movwf	(sprintf@ap+1)& (0+255),b
  3021  002108  C058  F0AB         	movff	sprintf@s,sprintf@f
  3022  00210C  C059  F0AC         	movff	sprintf@s+1,sprintf@f+1
  3023  002110                     
  3024                           ; BSR set to: 0
  3025  002110  0E00               	movlw	0
  3026  002112  6FAE               	movwf	(sprintf@f+3)& (0+255),b
  3027  002114  0E00               	movlw	0
  3028  002116  6FAD               	movwf	(sprintf@f+2)& (0+255),b
  3029  002118                     
  3030                           ; BSR set to: 0
  3031  002118  0E00               	movlw	0
  3032  00211A  6FB0               	movwf	(sprintf@f+5)& (0+255),b
  3033  00211C  0E00               	movlw	0
  3034  00211E  6FAF               	movwf	(sprintf@f+4)& (0+255),b
  3035  002120                     
  3036                           ; BSR set to: 0
  3037  002120  0EAB               	movlw	low sprintf@f
  3038  002122  6E50               	movwf	vfprintf@fp^0,c
  3039  002124  0E00               	movlw	high sprintf@f
  3040  002126  6E51               	movwf	(vfprintf@fp+1)^0,c
  3041  002128  C05A  F052         	movff	sprintf@fmt,vfprintf@fmt
  3042  00212C  C05B  F053         	movff	sprintf@fmt+1,vfprintf@fmt+1
  3043  002130  0EA9               	movlw	low sprintf@ap
  3044  002132  6E54               	movwf	vfprintf@ap^0,c
  3045  002134  0E00               	movlw	high sprintf@ap
  3046  002136  6E55               	movwf	(vfprintf@ap+1)^0,c
  3047  002138  EC60  F00F         	call	_vfprintf	;wreg free
  3048  00213C  0100               	movlb	0	; () banked
  3049  00213E  51AD               	movf	(sprintf@f+2)& (0+255),w,b
  3050  002140  2458               	addwf	sprintf@s^0,w,c
  3051  002142  6ED9               	movwf	fsr2l,c
  3052  002144  51AE               	movf	(sprintf@f+3)& (0+255),w,b
  3053  002146  2059               	addwfc	(sprintf@s+1)^0,w,c
  3054  002148  6EDA               	movwf	fsr2h,c
  3055  00214A  0E00               	movlw	0
  3056  00214C  6EDF               	movwf	indf2,c
  3057  00214E                     
  3058                           ; BSR set to: 0
  3059  00214E  0012               	return		;funcret
  3060  002150                     __end_of_sprintf:
  3061                           	opt callstack 0
  3062                           
  3063 ;; *************** function _vfprintf *****************
  3064 ;; Defined at:
  3065 ;;		line 1368 in file "D:\hk191dhbknam3hk1\e_vi_xu_ly_vi_dieu_khien_\software_needed_for_lab\folder_caidat\Microchip\xc8
      +\v2.10\pic\sources\c99\common\doprnt.c"
  3066 ;; Parameters:    Size  Location     Type
  3067 ;;  fp              2   79[COMRAM] PTR struct _IO_FILE
  3068 ;;		 -> sprintf@f(6), 
  3069 ;;  fmt             2   81[COMRAM] PTR const unsigned char 
  3070 ;;		 -> STR_6(3), STR_5(3), STR_4(3), STR_2(3), 
  3071 ;;  ap              2   83[COMRAM] PTR PTR void 
  3072 ;;		 -> sprintf@ap(2), 
  3073 ;; Auto vars:     Size  Location     Type
  3074 ;;  cfmt            2   85[COMRAM] PTR unsigned char 
  3075 ;;		 -> STR_6(3), STR_5(3), STR_4(3), STR_2(3), 
  3076 ;; Return value:  Size  Location     Type
  3077 ;;                  2   79[COMRAM] int 
  3078 ;; Registers used:
  3079 ;;		wreg, fsr1l, fsr1h, fsr2l, fsr2h, status,2, status,0, tblptrl, tblptrh, tblptru, cstack
  3080 ;; Tracked objects:
  3081 ;;		On entry : 0/0
  3082 ;;		On exit  : 0/0
  3083 ;;		Unchanged: 0/0
  3084 ;; Data sizes:     COMRAM   BANK0   BANK1   BANK2   BANK3   BANK4   BANK5   BANK6   BANK7   BANK8   BANK9  BANK10  BANK1
      +1  BANK12  BANK13  BANK14  BANK15
  3085 ;;      Params:         6       0       0       0       0       0       0       0       0       0       0       0       
      +0       0       0       0       0
  3086 ;;      Locals:         2       0       0       0       0       0       0       0       0       0       0       0       
      +0       0       0       0       0
  3087 ;;      Temps:          0       0       0       0       0       0       0       0       0       0       0       0       
      +0       0       0       0       0
  3088 ;;      Totals:         8       0       0       0       0       0       0       0       0       0       0       0       
      +0       0       0       0       0
  3089 ;;Total ram usage:        8 bytes
  3090 ;; Hardware stack levels used:    1
  3091 ;; Hardware stack levels required when called:    6
  3092 ;; This function calls:
  3093 ;;		_vfpfcnvrt
  3094 ;; This function is called by:
  3095 ;;		_sprintf
  3096 ;; This function uses a non-reentrant model
  3097 ;;
  3098                           
  3099                           	psect	text26
  3100  001EC0                     __ptext26:
  3101                           	opt callstack 0
  3102  001EC0                     _vfprintf:
  3103                           	opt callstack 17
  3104  001EC0                     
  3105                           ;D:\hk191dhbknam3hk1\e_vi_xu_ly_vi_dieu_khien_\software_needed_for_lab\folder_caidat\Mic
      +                          rochip\xc8\v2.10\pic\sources\c99\common\doprnt.c: 1368: int vfprintf(FILE *fp, const cha
      +                          r *fmt, va_list ap);D:\hk191dhbknam3hk1\e_vi_xu_ly_vi_dieu_khien_\software_needed_for_la
      +                          b\folder_caidat\Microchip\xc8\v2.10\pic\sources\c99\common\doprnt.c: 1369: {;D:\hk191dhb
      +                          knam3hk1\e_vi_xu_ly_vi_dieu_khien_\software_needed_for_lab\folder_caidat\Microchip\xc8\v
      +                          2.10\pic\sources\c99\common\doprnt.c: 1371:     char *cfmt;;D:\hk191dhbknam3hk1\e_vi_xu_
      +                          ly_vi_dieu_khien_\software_needed_for_lab\folder_caidat\Microchip\xc8\v2.10\pic\sources\
      +                          c99\common\doprnt.c: 1373:     cfmt = (char *)fmt;
  3106  001EC0  C052  F056         	movff	vfprintf@fmt,vfprintf@cfmt
  3107  001EC4  C053  F057         	movff	vfprintf@fmt+1,vfprintf@cfmt+1
  3108  001EC8                     
  3109                           ;D:\hk191dhbknam3hk1\e_vi_xu_ly_vi_dieu_khien_\software_needed_for_lab\folder_caidat\Mic
      +                          rochip\xc8\v2.10\pic\sources\c99\common\doprnt.c: 1374:     nout = 0;
  3110  001EC8  0E00               	movlw	0
  3111  001ECA  0100               	movlb	0	; () banked
  3112  001ECC  6F61               	movwf	(_nout+1)& (0+255),b
  3113  001ECE  0E00               	movlw	0
  3114  001ED0  6F60               	movwf	_nout& (0+255),b
  3115                           
  3116                           ;D:\hk191dhbknam3hk1\e_vi_xu_ly_vi_dieu_khien_\software_needed_for_lab\folder_caidat\Mic
      +                          rochip\xc8\v2.10\pic\sources\c99\common\doprnt.c: 1375:     while (*cfmt) {
  3117  001ED2  EF7E  F00F         	goto	i2l2338
  3118  001ED6                     i2l2336:
  3119                           
  3120                           ; BSR set to: 0
  3121                           ;D:\hk191dhbknam3hk1\e_vi_xu_ly_vi_dieu_khien_\software_needed_for_lab\folder_caidat\Mic
      +                          rochip\xc8\v2.10\pic\sources\c99\common\doprnt.c: 1376:         nout += vfpfcnvrt(fp, &c
      +                          fmt, ap);
  3122  001ED6  C050  F040         	movff	vfprintf@fp,vfpfcnvrt@fp
  3123  001EDA  C051  F041         	movff	vfprintf@fp+1,vfpfcnvrt@fp+1
  3124  001EDE  0E56               	movlw	low vfprintf@cfmt
  3125  001EE0  6E42               	movwf	vfpfcnvrt@fmt^0,c
  3126  001EE2  0E00               	movlw	high vfprintf@cfmt
  3127  001EE4  6E43               	movwf	(vfpfcnvrt@fmt+1)^0,c
  3128  001EE6  C054  F044         	movff	vfprintf@ap,vfpfcnvrt@ap
  3129  001EEA  C055  F045         	movff	vfprintf@ap+1,vfpfcnvrt@ap+1
  3130  001EEE  EC7E  F00A         	call	_vfpfcnvrt	;wreg free
  3131  001EF2  5040               	movf	?_vfpfcnvrt^0,w,c
  3132  001EF4  0100               	movlb	0	; () banked
  3133  001EF6  2760               	addwf	_nout& (0+255),f,b
  3134  001EF8  5041               	movf	(?_vfpfcnvrt+1)^0,w,c
  3135  001EFA  2361               	addwfc	(_nout+1)& (0+255),f,b
  3136  001EFC                     i2l2338:
  3137                           
  3138                           ; BSR set to: 0
  3139                           ;D:\hk191dhbknam3hk1\e_vi_xu_ly_vi_dieu_khien_\software_needed_for_lab\folder_caidat\Mic
      +                          rochip\xc8\v2.10\pic\sources\c99\common\doprnt.c: 1375:     while (*cfmt) {
  3140  001EFC  C056  FFF6         	movff	vfprintf@cfmt,tblptrl
  3141  001F00  C057  FFF7         	movff	vfprintf@cfmt+1,tblptrh
  3142  001F04                     	if	0	;tblptru may be non-zero
  3143  001F04                     	endif
  3144  001F04                     	if	1	;Program memory is > 0xFFFF, there are 3 active tblptr bytes
  3145  001F04  0E00               	movlw	low (__mediumconst shr (0+16))
  3146  001F06  6EF8               	movwf	tblptru,c
  3147  001F08                     	endif
  3148  001F08  0008               	tblrd		*
  3149  001F0A  50F5               	movf	tablat,w,c
  3150  001F0C  0900               	iorlw	0
  3151  001F0E  A4D8               	btfss	status,2,c
  3152  001F10  EF8C  F00F         	goto	i2u137_41
  3153  001F14  EF8E  F00F         	goto	i2u137_40
  3154  001F18                     i2u137_41:
  3155  001F18  EF6B  F00F         	goto	i2l2336
  3156  001F1C                     i2u137_40:
  3157  001F1C                     
  3158                           ; BSR set to: 0
  3159                           ;D:\hk191dhbknam3hk1\e_vi_xu_ly_vi_dieu_khien_\software_needed_for_lab\folder_caidat\Mic
      +                          rochip\xc8\v2.10\pic\sources\c99\common\doprnt.c: 1378:     return nout;
  3160  001F1C  C060  F050         	movff	_nout,?_vfprintf
  3161  001F20  C061  F051         	movff	_nout+1,?_vfprintf+1
  3162  001F24                     
  3163                           ; BSR set to: 0
  3164  001F24  0012               	return		;funcret
  3165  001F26                     __end_of_vfprintf:
  3166                           	opt callstack 0
  3167                           
  3168 ;; *************** function _vfpfcnvrt *****************
  3169 ;; Defined at:
  3170 ;;		line 670 in file "D:\hk191dhbknam3hk1\e_vi_xu_ly_vi_dieu_khien_\software_needed_for_lab\folder_caidat\Microchip\xc8\
      +v2.10\pic\sources\c99\common\doprnt.c"
  3171 ;; Parameters:    Size  Location     Type
  3172 ;;  fp              2   63[COMRAM] PTR struct _IO_FILE
  3173 ;;		 -> sprintf@f(6), 
  3174 ;;  fmt             2   65[COMRAM] PTR PTR unsigned char 
  3175 ;;		 -> vfprintf@cfmt(2), 
  3176 ;;  ap              2   67[COMRAM] PTR PTR void 
  3177 ;;		 -> sprintf@ap(2), 
  3178 ;; Auto vars:     Size  Location     Type
  3179 ;;  ll              8   71[COMRAM] long long 
  3180 ;;  llu             8    0        unsigned long long 
  3181 ;;  f               4    0        unsigned long long 
  3182 ;;  vp              3    0        PTR void 
  3183 ;;  ct              3    0        unsigned char [3]
  3184 ;;  cp              3    0        PTR unsigned char 
  3185 ;;  i               2    0        int 
  3186 ;;  done            2    0        int 
  3187 ;;  c               1    0        unsigned char 
  3188 ;; Return value:  Size  Location     Type
  3189 ;;                  2   63[COMRAM] int 
  3190 ;; Registers used:
  3191 ;;		wreg, fsr1l, fsr1h, fsr2l, fsr2h, status,2, status,0, tblptrl, tblptrh, tblptru, cstack
  3192 ;; Tracked objects:
  3193 ;;		On entry : 0/0
  3194 ;;		On exit  : 0/0
  3195 ;;		Unchanged: 0/0
  3196 ;; Data sizes:     COMRAM   BANK0   BANK1   BANK2   BANK3   BANK4   BANK5   BANK6   BANK7   BANK8   BANK9  BANK10  BANK1
      +1  BANK12  BANK13  BANK14  BANK15
  3197 ;;      Params:         6       0       0       0       0       0       0       0       0       0       0       0       
      +0       0       0       0       0
  3198 ;;      Locals:         8       0       0       0       0       0       0       0       0       0       0       0       
      +0       0       0       0       0
  3199 ;;      Temps:          2       0       0       0       0       0       0       0       0       0       0       0       
      +0       0       0       0       0
  3200 ;;      Totals:        16       0       0       0       0       0       0       0       0       0       0       0       
      +0       0       0       0       0
  3201 ;;Total ram usage:       16 bytes
  3202 ;; Hardware stack levels used:    1
  3203 ;; Hardware stack levels required when called:    5
  3204 ;; This function calls:
  3205 ;;		_dtoa
  3206 ;;		_fputc
  3207 ;; This function is called by:
  3208 ;;		_vfprintf
  3209 ;; This function uses a non-reentrant model
  3210 ;;
  3211                           
  3212                           	psect	text27
  3213  0014FC                     __ptext27:
  3214                           	opt callstack 0
  3215  0014FC                     _vfpfcnvrt:
  3216                           	opt callstack 17
  3217  0014FC                     
  3218                           ;D:\hk191dhbknam3hk1\e_vi_xu_ly_vi_dieu_khien_\software_needed_for_lab\folder_caidat\Mic
      +                          rochip\xc8\v2.10\pic\sources\c99\common\doprnt.c: 670: static int vfpfcnvrt(FILE *fp, ch
      +                          ar *fmt[], va_list ap);D:\hk191dhbknam3hk1\e_vi_xu_ly_vi_dieu_khien_\software_needed_for
      +                          _lab\folder_caidat\Microchip\xc8\v2.10\pic\sources\c99\common\doprnt.c: 671: {;D:\hk191d
      +                          hbknam3hk1\e_vi_xu_ly_vi_dieu_khien_\software_needed_for_lab\folder_caidat\Microchip\xc8
      +                          \v2.10\pic\sources\c99\common\doprnt.c: 672:     char c, *cp, ct[3];;D:\hk191dhbknam3hk1
      +                          \e_vi_xu_ly_vi_dieu_khien_\software_needed_for_lab\folder_caidat\Microchip\xc8\v2.10\pic
      +                          \sources\c99\common\doprnt.c: 673:     int done, i;
  3219  0014FC  C042  FFD9         	movff	vfpfcnvrt@fmt,fsr2l
  3220  001500  C043  FFDA         	movff	vfpfcnvrt@fmt+1,fsr2h
  3221  001504  CFDE FFF6          	movff	postinc2,tblptrl
  3222  001508  CFDD FFF7          	movff	postdec2,tblptrh
  3223  00150C                     	if	0	;tblptru may be non-zero
  3224  00150C                     	endif
  3225  00150C                     	if	1	;Program memory is > 0xFFFF, there are 3 active tblptr bytes
  3226  00150C  0E00               	movlw	low (__mediumconst shr (0+16))
  3227  00150E  6EF8               	movwf	tblptru,c
  3228  001510                     	endif
  3229  001510  0008               	tblrd		*
  3230  001512  50F5               	movf	tablat,w,c
  3231  001514  0A25               	xorlw	37
  3232  001516  A4D8               	btfss	status,2,c
  3233  001518  EF90  F00A         	goto	i2u130_41
  3234  00151C  EF92  F00A         	goto	i2u130_40
  3235  001520                     i2u130_41:
  3236  001520  EF44  F00B         	goto	i2l2256
  3237  001524                     i2u130_40:
  3238  001524                     
  3239                           ;D:\hk191dhbknam3hk1\e_vi_xu_ly_vi_dieu_khien_\software_needed_for_lab\folder_caidat\Mic
      +                          rochip\xc8\v2.10\pic\sources\c99\common\doprnt.c: 681:         ++*fmt;
  3240  001524  C042  FFD9         	movff	vfpfcnvrt@fmt,fsr2l
  3241  001528  C043  FFDA         	movff	vfpfcnvrt@fmt+1,fsr2h
  3242  00152C  2ADE               	incf	postinc2,f,c
  3243  00152E  0E00               	movlw	0
  3244  001530  22DD               	addwfc	postdec2,f,c
  3245  001532                     
  3246                           ;D:\hk191dhbknam3hk1\e_vi_xu_ly_vi_dieu_khien_\software_needed_for_lab\folder_caidat\Mic
      +                          rochip\xc8\v2.10\pic\sources\c99\common\doprnt.c: 683:         flags = width = 0;
  3247  001532  0E00               	movlw	0
  3248  001534  0100               	movlb	0	; () banked
  3249  001536  6F63               	movwf	(_width+1)& (0+255),b
  3250  001538  0E00               	movlw	0
  3251  00153A  6F62               	movwf	_width& (0+255),b
  3252  00153C  C062  F066         	movff	_width,_flags
  3253  001540  C063  F067         	movff	_width+1,_flags+1
  3254  001544                     
  3255                           ; BSR set to: 0
  3256                           ;D:\hk191dhbknam3hk1\e_vi_xu_ly_vi_dieu_khien_\software_needed_for_lab\folder_caidat\Mic
      +                          rochip\xc8\v2.10\pic\sources\c99\common\doprnt.c: 684:         prec = -1;
  3257  001544  6964               	setf	_prec& (0+255),b
  3258  001546  6965               	setf	(_prec+1)& (0+255),b
  3259  001548                     
  3260                           ; BSR set to: 0
  3261                           ;D:\hk191dhbknam3hk1\e_vi_xu_ly_vi_dieu_khien_\software_needed_for_lab\folder_caidat\Mic
      +                          rochip\xc8\v2.10\pic\sources\c99\common\doprnt.c: 825:         if ((*fmt[0] == 'd') || (
      +                          *fmt[0] == 'i')) {
  3262  001548  C042  FFD9         	movff	vfpfcnvrt@fmt,fsr2l
  3263  00154C  C043  FFDA         	movff	vfpfcnvrt@fmt+1,fsr2h
  3264  001550  CFDE FFF6          	movff	postinc2,tblptrl
  3265  001554  CFDD FFF7          	movff	postdec2,tblptrh
  3266  001558                     	if	0	;tblptru may be non-zero
  3267  001558                     	endif
  3268  001558                     	if	1	;Program memory is > 0xFFFF, there are 3 active tblptr bytes
  3269  001558  0E00               	movlw	low (__mediumconst shr (0+16))
  3270  00155A  6EF8               	movwf	tblptru,c
  3271  00155C                     	endif
  3272  00155C  0008               	tblrd		*
  3273  00155E  50F5               	movf	tablat,w,c
  3274  001560  0A64               	xorlw	100
  3275  001562  B4D8               	btfsc	status,2,c
  3276  001564  EFB6  F00A         	goto	i2u131_41
  3277  001568  EFB8  F00A         	goto	i2u131_40
  3278  00156C                     i2u131_41:
  3279  00156C  EFCC  F00A         	goto	i2l2234
  3280  001570                     i2u131_40:
  3281  001570                     
  3282                           ; BSR set to: 0
  3283  001570  C042  FFD9         	movff	vfpfcnvrt@fmt,fsr2l
  3284  001574  C043  FFDA         	movff	vfpfcnvrt@fmt+1,fsr2h
  3285  001578  CFDE FFF6          	movff	postinc2,tblptrl
  3286  00157C  CFDD FFF7          	movff	postdec2,tblptrh
  3287  001580                     	if	0	;tblptru may be non-zero
  3288  001580                     	endif
  3289  001580                     	if	1	;Program memory is > 0xFFFF, there are 3 active tblptr bytes
  3290  001580  0E00               	movlw	low (__mediumconst shr (0+16))
  3291  001582  6EF8               	movwf	tblptru,c
  3292  001584                     	endif
  3293  001584  0008               	tblrd		*
  3294  001586  50F5               	movf	tablat,w,c
  3295  001588  0A69               	xorlw	105
  3296  00158A  A4D8               	btfss	status,2,c
  3297  00158C  EFCA  F00A         	goto	i2u132_41
  3298  001590  EFCC  F00A         	goto	i2u132_40
  3299  001594                     i2u132_41:
  3300  001594  EF0C  F00B         	goto	i2l2240
  3301  001598                     i2u132_40:
  3302  001598                     i2l2234:
  3303                           
  3304                           ; BSR set to: 0
  3305                           ;D:\hk191dhbknam3hk1\e_vi_xu_ly_vi_dieu_khien_\software_needed_for_lab\folder_caidat\Mic
      +                          rochip\xc8\v2.10\pic\sources\c99\common\doprnt.c: 827:             ++*fmt;
  3306  001598  C042  FFD9         	movff	vfpfcnvrt@fmt,fsr2l
  3307  00159C  C043  FFDA         	movff	vfpfcnvrt@fmt+1,fsr2h
  3308  0015A0  2ADE               	incf	postinc2,f,c
  3309  0015A2  0E00               	movlw	0
  3310  0015A4  22DD               	addwfc	postdec2,f,c
  3311                           
  3312                           ;D:\hk191dhbknam3hk1\e_vi_xu_ly_vi_dieu_khien_\software_needed_for_lab\folder_caidat\Mic
      +                          rochip\xc8\v2.10\pic\sources\c99\common\doprnt.c: 828:             ll = (long long)(*(in
      +                          t *)__va_arg(*(int **)ap, (int)0));
  3313  0015A6  C044  FFD9         	movff	vfpfcnvrt@ap,fsr2l
  3314  0015AA  C045  FFDA         	movff	vfpfcnvrt@ap+1,fsr2h
  3315  0015AE  CFDF F046          	movff	indf2,??_vfpfcnvrt
  3316  0015B2  0E02               	movlw	2
  3317  0015B4  26DE               	addwf	postinc2,f,c
  3318  0015B6  CFDF F047          	movff	indf2,??_vfpfcnvrt+1
  3319  0015BA  0E00               	movlw	0
  3320  0015BC  22DD               	addwfc	postdec2,f,c
  3321  0015BE  C046  FFD9         	movff	??_vfpfcnvrt,fsr2l
  3322  0015C2  C047  FFDA         	movff	??_vfpfcnvrt+1,fsr2h
  3323  0015C6  CFDE F048          	movff	postinc2,vfpfcnvrt@ll
  3324  0015CA  CFDD F049          	movff	postdec2,vfpfcnvrt@ll+1
  3325  0015CE  0E00               	movlw	0
  3326  0015D0  BE49               	btfsc	(vfpfcnvrt@ll+1)^0,7,c
  3327  0015D2  0EFF               	movlw	-1
  3328  0015D4  6E4A               	movwf	(vfpfcnvrt@ll+2)^0,c
  3329  0015D6  6E4B               	movwf	(vfpfcnvrt@ll+3)^0,c
  3330  0015D8  6E4C               	movwf	(vfpfcnvrt@ll+4)^0,c
  3331  0015DA  6E4D               	movwf	(vfpfcnvrt@ll+5)^0,c
  3332  0015DC  6E4E               	movwf	(vfpfcnvrt@ll+6)^0,c
  3333  0015DE  6E4F               	movwf	(vfpfcnvrt@ll+7)^0,c
  3334  0015E0                     
  3335                           ; BSR set to: 0
  3336                           ;D:\hk191dhbknam3hk1\e_vi_xu_ly_vi_dieu_khien_\software_needed_for_lab\folder_caidat\Mic
      +                          rochip\xc8\v2.10\pic\sources\c99\common\doprnt.c: 830:             return dtoa(fp, ll);
  3337  0015E0  C040  F01C         	movff	vfpfcnvrt@fp,dtoa@fp
  3338  0015E4  C041  F01D         	movff	vfpfcnvrt@fp+1,dtoa@fp+1
  3339  0015E8  C048  F01E         	movff	vfpfcnvrt@ll,dtoa@d
  3340  0015EC  C049  F01F         	movff	vfpfcnvrt@ll+1,dtoa@d+1
  3341  0015F0  C04A  F020         	movff	vfpfcnvrt@ll+2,dtoa@d+2
  3342  0015F4  C04B  F021         	movff	vfpfcnvrt@ll+3,dtoa@d+3
  3343  0015F8  C04C  F022         	movff	vfpfcnvrt@ll+4,dtoa@d+4
  3344  0015FC  C04D  F023         	movff	vfpfcnvrt@ll+5,dtoa@d+5
  3345  001600  C04E  F024         	movff	vfpfcnvrt@ll+6,dtoa@d+6
  3346  001604  C04F  F025         	movff	vfpfcnvrt@ll+7,dtoa@d+7
  3347  001608  EC0D  F008         	call	_dtoa	;wreg free
  3348  00160C  C01C  F040         	movff	?_dtoa,?_vfpfcnvrt
  3349  001610  C01D  F041         	movff	?_dtoa+1,?_vfpfcnvrt+1
  3350  001614  EF61  F00B         	goto	i2l506
  3351  001618                     i2l2240:
  3352                           
  3353                           ; BSR set to: 0
  3354                           ;D:\hk191dhbknam3hk1\e_vi_xu_ly_vi_dieu_khien_\software_needed_for_lab\folder_caidat\Mic
      +                          rochip\xc8\v2.10\pic\sources\c99\common\doprnt.c: 1350:         if ((*fmt)[0] == '%') {
  3355  001618  C042  FFD9         	movff	vfpfcnvrt@fmt,fsr2l
  3356  00161C  C043  FFDA         	movff	vfpfcnvrt@fmt+1,fsr2h
  3357  001620  CFDE FFF6          	movff	postinc2,tblptrl
  3358  001624  CFDD FFF7          	movff	postdec2,tblptrh
  3359  001628                     	if	0	;tblptru may be non-zero
  3360  001628                     	endif
  3361  001628                     	if	1	;Program memory is > 0xFFFF, there are 3 active tblptr bytes
  3362  001628  0E00               	movlw	low (__mediumconst shr (0+16))
  3363  00162A  6EF8               	movwf	tblptru,c
  3364  00162C                     	endif
  3365  00162C  0008               	tblrd		*
  3366  00162E  50F5               	movf	tablat,w,c
  3367  001630  0A25               	xorlw	37
  3368  001632  A4D8               	btfss	status,2,c
  3369  001634  EF1E  F00B         	goto	i2u133_41
  3370  001638  EF20  F00B         	goto	i2u133_40
  3371  00163C                     i2u133_41:
  3372  00163C  EF37  F00B         	goto	i2l2250
  3373  001640                     i2u133_40:
  3374  001640                     
  3375                           ; BSR set to: 0
  3376                           ;D:\hk191dhbknam3hk1\e_vi_xu_ly_vi_dieu_khien_\software_needed_for_lab\folder_caidat\Mic
      +                          rochip\xc8\v2.10\pic\sources\c99\common\doprnt.c: 1351:             ++*fmt;
  3377  001640  C042  FFD9         	movff	vfpfcnvrt@fmt,fsr2l
  3378  001644  C043  FFDA         	movff	vfpfcnvrt@fmt+1,fsr2h
  3379  001648  2ADE               	incf	postinc2,f,c
  3380  00164A  0E00               	movlw	0
  3381  00164C  22DD               	addwfc	postdec2,f,c
  3382  00164E                     
  3383                           ; BSR set to: 0
  3384                           ;D:\hk191dhbknam3hk1\e_vi_xu_ly_vi_dieu_khien_\software_needed_for_lab\folder_caidat\Mic
      +                          rochip\xc8\v2.10\pic\sources\c99\common\doprnt.c: 1352:             fputc((int)'%', fp);
  3385  00164E  0E00               	movlw	0
  3386  001650  6E02               	movwf	(fputc@c+1)^0,c
  3387  001652  0E25               	movlw	37
  3388  001654  6E01               	movwf	fputc@c^0,c
  3389  001656  C040  F003         	movff	vfpfcnvrt@fp,fputc@fp
  3390  00165A  C041  F004         	movff	vfpfcnvrt@fp+1,fputc@fp+1
  3391  00165E  EC4E  F00D         	call	_fputc	;wreg free
  3392  001662                     i2l2246:
  3393                           
  3394                           ;D:\hk191dhbknam3hk1\e_vi_xu_ly_vi_dieu_khien_\software_needed_for_lab\folder_caidat\Mic
      +                          rochip\xc8\v2.10\pic\sources\c99\common\doprnt.c: 1353:             return 1;
  3395  001662  0E00               	movlw	0
  3396  001664  6E41               	movwf	(?_vfpfcnvrt+1)^0,c
  3397  001666  0E01               	movlw	1
  3398  001668  6E40               	movwf	?_vfpfcnvrt^0,c
  3399  00166A  EF61  F00B         	goto	i2l506
  3400  00166E                     i2l2250:
  3401                           
  3402                           ; BSR set to: 0
  3403                           ;D:\hk191dhbknam3hk1\e_vi_xu_ly_vi_dieu_khien_\software_needed_for_lab\folder_caidat\Mic
      +                          rochip\xc8\v2.10\pic\sources\c99\common\doprnt.c: 1357:         ++*fmt;
  3404  00166E  C042  FFD9         	movff	vfpfcnvrt@fmt,fsr2l
  3405  001672  C043  FFDA         	movff	vfpfcnvrt@fmt+1,fsr2h
  3406  001676  2ADE               	incf	postinc2,f,c
  3407  001678  0E00               	movlw	0
  3408  00167A  22DD               	addwfc	postdec2,f,c
  3409  00167C                     
  3410                           ; BSR set to: 0
  3411                           ;D:\hk191dhbknam3hk1\e_vi_xu_ly_vi_dieu_khien_\software_needed_for_lab\folder_caidat\Mic
      +                          rochip\xc8\v2.10\pic\sources\c99\common\doprnt.c: 1358:         return 0;
  3412  00167C  0E00               	movlw	0
  3413  00167E  6E41               	movwf	(?_vfpfcnvrt+1)^0,c
  3414  001680  0E00               	movlw	0
  3415  001682  6E40               	movwf	?_vfpfcnvrt^0,c
  3416  001684  EF61  F00B         	goto	i2l506
  3417  001688                     i2l2256:
  3418                           
  3419                           ;D:\hk191dhbknam3hk1\e_vi_xu_ly_vi_dieu_khien_\software_needed_for_lab\folder_caidat\Mic
      +                          rochip\xc8\v2.10\pic\sources\c99\common\doprnt.c: 1362:     fputc((int)(*fmt)[0], fp);
  3420  001688  C042  FFD9         	movff	vfpfcnvrt@fmt,fsr2l
  3421  00168C  C043  FFDA         	movff	vfpfcnvrt@fmt+1,fsr2h
  3422  001690  CFDE FFF6          	movff	postinc2,tblptrl
  3423  001694  CFDD FFF7          	movff	postdec2,tblptrh
  3424  001698                     	if	0	;tblptru may be non-zero
  3425  001698                     	endif
  3426  001698                     	if	1	;Program memory is > 0xFFFF, there are 3 active tblptr bytes
  3427  001698  0E00               	movlw	low (__mediumconst shr (0+16))
  3428  00169A  6EF8               	movwf	tblptru,c
  3429  00169C                     	endif
  3430  00169C  0008               	tblrd		*
  3431  00169E  50F5               	movf	tablat,w,c
  3432  0016A0  6E01               	movwf	fputc@c^0,c
  3433  0016A2  6A02               	clrf	(fputc@c+1)^0,c
  3434  0016A4  C040  F003         	movff	vfpfcnvrt@fp,fputc@fp
  3435  0016A8  C041  F004         	movff	vfpfcnvrt@fp+1,fputc@fp+1
  3436  0016AC  EC4E  F00D         	call	_fputc	;wreg free
  3437  0016B0                     
  3438                           ;D:\hk191dhbknam3hk1\e_vi_xu_ly_vi_dieu_khien_\software_needed_for_lab\folder_caidat\Mic
      +                          rochip\xc8\v2.10\pic\sources\c99\common\doprnt.c: 1363:     ++*fmt;
  3439  0016B0  C042  FFD9         	movff	vfpfcnvrt@fmt,fsr2l
  3440  0016B4  C043  FFDA         	movff	vfpfcnvrt@fmt+1,fsr2h
  3441  0016B8  2ADE               	incf	postinc2,f,c
  3442  0016BA  0E00               	movlw	0
  3443  0016BC  22DD               	addwfc	postdec2,f,c
  3444  0016BE  EF31  F00B         	goto	i2l2246
  3445  0016C2                     i2l506:
  3446  0016C2  0012               	return		;funcret
  3447  0016C4                     __end_of_vfpfcnvrt:
  3448                           	opt callstack 0
  3449                           
  3450 ;; *************** function _dtoa *****************
  3451 ;; Defined at:
  3452 ;;		line 274 in file "D:\hk191dhbknam3hk1\e_vi_xu_ly_vi_dieu_khien_\software_needed_for_lab\folder_caidat\Microchip\xc8\
      +v2.10\pic\sources\c99\common\doprnt.c"
  3453 ;; Parameters:    Size  Location     Type
  3454 ;;  fp              2   27[COMRAM] PTR struct _IO_FILE
  3455 ;;		 -> sprintf@f(6), 
  3456 ;;  d               8   29[COMRAM] long long 
  3457 ;; Auto vars:     Size  Location     Type
  3458 ;;  n               8   53[COMRAM] long long 
  3459 ;;  i               2   61[COMRAM] int 
  3460 ;;  s               2   51[COMRAM] int 
  3461 ;;  w               2   49[COMRAM] int 
  3462 ;;  p               2   47[COMRAM] int 
  3463 ;; Return value:  Size  Location     Type
  3464 ;;                  2   27[COMRAM] int 
  3465 ;; Registers used:
  3466 ;;		wreg, fsr1l, fsr1h, fsr2l, fsr2h, status,2, status,0, cstack
  3467 ;; Tracked objects:
  3468 ;;		On entry : 0/0
  3469 ;;		On exit  : 0/0
  3470 ;;		Unchanged: 0/0
  3471 ;; Data sizes:     COMRAM   BANK0   BANK1   BANK2   BANK3   BANK4   BANK5   BANK6   BANK7   BANK8   BANK9  BANK10  BANK1
      +1  BANK12  BANK13  BANK14  BANK15
  3472 ;;      Params:        10       0       0       0       0       0       0       0       0       0       0       0       
      +0       0       0       0       0
  3473 ;;      Locals:        18       0       0       0       0       0       0       0       0       0       0       0       
      +0       0       0       0       0
  3474 ;;      Temps:          8       0       0       0       0       0       0       0       0       0       0       0       
      +0       0       0       0       0
  3475 ;;      Totals:        36       0       0       0       0       0       0       0       0       0       0       0       
      +0       0       0       0       0
  3476 ;;Total ram usage:       36 bytes
  3477 ;; Hardware stack levels used:    1
  3478 ;; Hardware stack levels required when called:    4
  3479 ;; This function calls:
  3480 ;;		___aodiv
  3481 ;;		___aomod
  3482 ;;		_abs
  3483 ;;		_pad
  3484 ;; This function is called by:
  3485 ;;		_vfpfcnvrt
  3486 ;; This function uses a non-reentrant model
  3487 ;;
  3488                           
  3489                           	psect	text28
  3490  00101A                     __ptext28:
  3491                           	opt callstack 0
  3492  00101A                     _dtoa:
  3493                           	opt callstack 17
  3494  00101A                     
  3495                           ;D:\hk191dhbknam3hk1\e_vi_xu_ly_vi_dieu_khien_\software_needed_for_lab\folder_caidat\Mic
      +                          rochip\xc8\v2.10\pic\sources\c99\common\doprnt.c: 274: static int dtoa(FILE *fp, long lo
      +                          ng d);D:\hk191dhbknam3hk1\e_vi_xu_ly_vi_dieu_khien_\software_needed_for_lab\folder_caida
      +                          t\Microchip\xc8\v2.10\pic\sources\c99\common\doprnt.c: 275: {;D:\hk191dhbknam3hk1\e_vi_x
      +                          u_ly_vi_dieu_khien_\software_needed_for_lab\folder_caidat\Microchip\xc8\v2.10\pic\source
      +                          s\c99\common\doprnt.c: 276:     int i, p, s, w;;D:\hk191dhbknam3hk1\e_vi_xu_ly_vi_dieu_k
      +                          hien_\software_needed_for_lab\folder_caidat\Microchip\xc8\v2.10\pic\sources\c99\common\d
      +                          oprnt.c: 277:     long long n;
  3496  00101A  C01E  F036         	movff	dtoa@d,dtoa@n
  3497  00101E  C01F  F037         	movff	dtoa@d+1,dtoa@n+1
  3498  001022  C020  F038         	movff	dtoa@d+2,dtoa@n+2
  3499  001026  C021  F039         	movff	dtoa@d+3,dtoa@n+3
  3500  00102A  C022  F03A         	movff	dtoa@d+4,dtoa@n+4
  3501  00102E  C023  F03B         	movff	dtoa@d+5,dtoa@n+5
  3502  001032  C024  F03C         	movff	dtoa@d+6,dtoa@n+6
  3503  001036  C025  F03D         	movff	dtoa@d+7,dtoa@n+7
  3504  00103A                     
  3505                           ;D:\hk191dhbknam3hk1\e_vi_xu_ly_vi_dieu_khien_\software_needed_for_lab\folder_caidat\Mic
      +                          rochip\xc8\v2.10\pic\sources\c99\common\doprnt.c: 281:     s = n < 0 ? 1 : 0;
  3506  00103A  BE3D               	btfsc	(dtoa@n+7)^0,7,c
  3507  00103C  EF22  F008         	goto	i2u112_41
  3508  001040  EF25  F008         	goto	i2u112_40
  3509  001044                     i2u112_41:
  3510  001044  0E01               	movlw	1
  3511  001046  EF26  F008         	goto	i2u113_40
  3512  00104A                     i2u112_40:
  3513  00104A  0E00               	movlw	0
  3514  00104C                     i2u113_40:
  3515  00104C  6E34               	movwf	dtoa@s^0,c
  3516  00104E  6A35               	clrf	(dtoa@s+1)^0,c
  3517                           
  3518                           ;D:\hk191dhbknam3hk1\e_vi_xu_ly_vi_dieu_khien_\software_needed_for_lab\folder_caidat\Mic
      +                          rochip\xc8\v2.10\pic\sources\c99\common\doprnt.c: 282:     if (s) {
  3519  001050  5034               	movf	dtoa@s^0,w,c
  3520  001052  1035               	iorwf	(dtoa@s+1)^0,w,c
  3521  001054  B4D8               	btfsc	status,2,c
  3522  001056  EF2F  F008         	goto	i2u114_41
  3523  00105A  EF31  F008         	goto	i2u114_40
  3524  00105E                     i2u114_41:
  3525  00105E  EF41  F008         	goto	i2l2120
  3526  001062                     i2u114_40:
  3527  001062                     
  3528                           ;D:\hk191dhbknam3hk1\e_vi_xu_ly_vi_dieu_khien_\software_needed_for_lab\folder_caidat\Mic
      +                          rochip\xc8\v2.10\pic\sources\c99\common\doprnt.c: 283:         n = -n;
  3529  001062  1E3D               	comf	(dtoa@n+7)^0,f,c
  3530  001064  1E3C               	comf	(dtoa@n+6)^0,f,c
  3531  001066  1E3B               	comf	(dtoa@n+5)^0,f,c
  3532  001068  1E3A               	comf	(dtoa@n+4)^0,f,c
  3533  00106A  1E39               	comf	(dtoa@n+3)^0,f,c
  3534  00106C  1E38               	comf	(dtoa@n+2)^0,f,c
  3535  00106E  1E37               	comf	(dtoa@n+1)^0,f,c
  3536  001070  6C36               	negf	dtoa@n^0,c
  3537  001072  0E00               	movlw	0
  3538  001074  2237               	addwfc	(dtoa@n+1)^0,f,c
  3539  001076  2238               	addwfc	(dtoa@n+2)^0,f,c
  3540  001078  2239               	addwfc	(dtoa@n+3)^0,f,c
  3541  00107A  223A               	addwfc	(dtoa@n+4)^0,f,c
  3542  00107C  223B               	addwfc	(dtoa@n+5)^0,f,c
  3543  00107E  223C               	addwfc	(dtoa@n+6)^0,f,c
  3544  001080  223D               	addwfc	(dtoa@n+7)^0,f,c
  3545  001082                     i2l2120:
  3546                           
  3547                           ;D:\hk191dhbknam3hk1\e_vi_xu_ly_vi_dieu_khien_\software_needed_for_lab\folder_caidat\Mic
      +                          rochip\xc8\v2.10\pic\sources\c99\common\doprnt.c: 287:     if (!(prec < 0)) {
  3548  001082  0100               	movlb	0	; () banked
  3549  001084  BF65               	btfsc	(_prec+1)& (0+255),7,b
  3550  001086  EF47  F008         	goto	i2u115_41
  3551  00108A  EF49  F008         	goto	i2u115_40
  3552  00108E                     i2u115_41:
  3553  00108E  EF4A  F008         	goto	i2l2124
  3554  001092                     i2u115_40:
  3555  001092                     
  3556                           ; BSR set to: 0
  3557                           ;D:\hk191dhbknam3hk1\e_vi_xu_ly_vi_dieu_khien_\software_needed_for_lab\folder_caidat\Mic
      +                          rochip\xc8\v2.10\pic\sources\c99\common\doprnt.c: 288:         flags &= ~(1 << 1);
  3558  001092  9366               	bcf	_flags& (0+255),1,b
  3559  001094                     i2l2124:
  3560                           
  3561                           ; BSR set to: 0
  3562                           ;D:\hk191dhbknam3hk1\e_vi_xu_ly_vi_dieu_khien_\software_needed_for_lab\folder_caidat\Mic
      +                          rochip\xc8\v2.10\pic\sources\c99\common\doprnt.c: 290:     p = (0 < prec) ? prec : 1;
  3563  001094  BF65               	btfsc	(_prec+1)& (0+255),7,b
  3564  001096  EF57  F008         	goto	i2u116_40
  3565  00109A  5165               	movf	(_prec+1)& (0+255),w,b
  3566  00109C  E106               	bnz	i2u116_41
  3567  00109E  0564               	decf	_prec& (0+255),w,b
  3568  0010A0  B0D8               	btfsc	status,0,c
  3569  0010A2  EF55  F008         	goto	i2u116_41
  3570  0010A6  EF57  F008         	goto	i2u116_40
  3571  0010AA                     i2u116_41:
  3572  0010AA  EF5D  F008         	goto	i2l479
  3573  0010AE                     i2u116_40:
  3574  0010AE                     
  3575                           ; BSR set to: 0
  3576  0010AE  0E00               	movlw	0
  3577  0010B0  6E31               	movwf	(dtoa@p+1)^0,c
  3578  0010B2  0E01               	movlw	1
  3579  0010B4  6E30               	movwf	dtoa@p^0,c
  3580  0010B6  EF61  F008         	goto	i2l481
  3581  0010BA                     i2l479:
  3582                           
  3583                           ; BSR set to: 0
  3584  0010BA  C064  F030         	movff	_prec,dtoa@p
  3585  0010BE  C065  F031         	movff	_prec+1,dtoa@p+1
  3586  0010C2                     i2l481:
  3587                           
  3588                           ; BSR set to: 0
  3589                           ;D:\hk191dhbknam3hk1\e_vi_xu_ly_vi_dieu_khien_\software_needed_for_lab\folder_caidat\Mic
      +                          rochip\xc8\v2.10\pic\sources\c99\common\doprnt.c: 291:     w = width;
  3590  0010C2  C062  F032         	movff	_width,dtoa@w
  3591  0010C6  C063  F033         	movff	_width+1,dtoa@w+1
  3592  0010CA                     
  3593                           ; BSR set to: 0
  3594                           ;D:\hk191dhbknam3hk1\e_vi_xu_ly_vi_dieu_khien_\software_needed_for_lab\folder_caidat\Mic
      +                          rochip\xc8\v2.10\pic\sources\c99\common\doprnt.c: 292:     if (s || (flags & (1 << 2))) 
      +                          {
  3595  0010CA  5034               	movf	dtoa@s^0,w,c
  3596  0010CC  1035               	iorwf	(dtoa@s+1)^0,w,c
  3597  0010CE  A4D8               	btfss	status,2,c
  3598  0010D0  EF6C  F008         	goto	i2u117_41
  3599  0010D4  EF6E  F008         	goto	i2u117_40
  3600  0010D8                     i2u117_41:
  3601  0010D8  EF75  F008         	goto	i2l2132
  3602  0010DC                     i2u117_40:
  3603  0010DC                     
  3604                           ; BSR set to: 0
  3605  0010DC  A566               	btfss	_flags& (0+255),2,b
  3606  0010DE  EF73  F008         	goto	i2u118_41
  3607  0010E2  EF75  F008         	goto	i2u118_40
  3608  0010E6                     i2u118_41:
  3609  0010E6  EF78  F008         	goto	i2l2134
  3610  0010EA                     i2u118_40:
  3611  0010EA                     i2l2132:
  3612                           
  3613                           ; BSR set to: 0
  3614                           ;D:\hk191dhbknam3hk1\e_vi_xu_ly_vi_dieu_khien_\software_needed_for_lab\folder_caidat\Mic
      +                          rochip\xc8\v2.10\pic\sources\c99\common\doprnt.c: 293:         --w;
  3615  0010EA  0632               	decf	dtoa@w^0,f,c
  3616  0010EC  A0D8               	btfss	status,0,c
  3617  0010EE  0633               	decf	(dtoa@w+1)^0,f,c
  3618  0010F0                     i2l2134:
  3619                           
  3620                           ; BSR set to: 0
  3621                           ;D:\hk191dhbknam3hk1\e_vi_xu_ly_vi_dieu_khien_\software_needed_for_lab\folder_caidat\Mic
      +                          rochip\xc8\v2.10\pic\sources\c99\common\doprnt.c: 297:     i = sizeof(dbuf) - 1;
  3622  0010F0  0E00               	movlw	0
  3623  0010F2  6E3F               	movwf	(dtoa@i+1)^0,c
  3624  0010F4  0E1F               	movlw	31
  3625  0010F6  6E3E               	movwf	dtoa@i^0,c
  3626  0010F8                     
  3627                           ; BSR set to: 0
  3628                           ;D:\hk191dhbknam3hk1\e_vi_xu_ly_vi_dieu_khien_\software_needed_for_lab\folder_caidat\Mic
      +                          rochip\xc8\v2.10\pic\sources\c99\common\doprnt.c: 298:     dbuf[i] = '\0';
  3629  0010F8  0E00               	movlw	0
  3630  0010FA  6F99               	movwf	(_dbuf+31)& (0+255),b
  3631                           
  3632                           ;D:\hk191dhbknam3hk1\e_vi_xu_ly_vi_dieu_khien_\software_needed_for_lab\folder_caidat\Mic
      +                          rochip\xc8\v2.10\pic\sources\c99\common\doprnt.c: 299:     while (!(i < 1) && (n || (0 <
      +                           p) || ((0 < w) && (flags & (1 << 1))))) {
  3633  0010FC  EFFC  F008         	goto	i2l2148
  3634  001100                     i2l2138:
  3635                           
  3636                           ;D:\hk191dhbknam3hk1\e_vi_xu_ly_vi_dieu_khien_\software_needed_for_lab\folder_caidat\Mic
      +                          rochip\xc8\v2.10\pic\sources\c99\common\doprnt.c: 300:         --i;
  3637  001100  063E               	decf	dtoa@i^0,f,c
  3638  001102  A0D8               	btfss	status,0,c
  3639  001104  063F               	decf	(dtoa@i+1)^0,f,c
  3640  001106                     
  3641                           ;D:\hk191dhbknam3hk1\e_vi_xu_ly_vi_dieu_khien_\software_needed_for_lab\folder_caidat\Mic
      +                          rochip\xc8\v2.10\pic\sources\c99\common\doprnt.c: 301:         dbuf[i] = '0' + abs(n % 1
      +                          0);
  3642  001106  0E7A               	movlw	low _dbuf
  3643  001108  243E               	addwf	dtoa@i^0,w,c
  3644  00110A  6ED9               	movwf	fsr2l,c
  3645  00110C  0E00               	movlw	high _dbuf
  3646  00110E  203F               	addwfc	(dtoa@i+1)^0,w,c
  3647  001110  6EDA               	movwf	fsr2h,c
  3648  001112  C036  F001         	movff	dtoa@n,___aomod@dividend
  3649  001116  C037  F002         	movff	dtoa@n+1,___aomod@dividend+1
  3650  00111A  C038  F003         	movff	dtoa@n+2,___aomod@dividend+2
  3651  00111E  C039  F004         	movff	dtoa@n+3,___aomod@dividend+3
  3652  001122  C03A  F005         	movff	dtoa@n+4,___aomod@dividend+4
  3653  001126  C03B  F006         	movff	dtoa@n+5,___aomod@dividend+5
  3654  00112A  C03C  F007         	movff	dtoa@n+6,___aomod@dividend+6
  3655  00112E  C03D  F008         	movff	dtoa@n+7,___aomod@dividend+7
  3656  001132  0E0A               	movlw	10
  3657  001134  6E09               	movwf	___aomod@divisor^0,c
  3658  001136  0E00               	movlw	0
  3659  001138  6E0A               	movwf	(___aomod@divisor+1)^0,c
  3660  00113A  0E00               	movlw	0
  3661  00113C  6E0B               	movwf	(___aomod@divisor+2)^0,c
  3662  00113E  0E00               	movlw	0
  3663  001140  6E0C               	movwf	(___aomod@divisor+3)^0,c
  3664  001142  0E00               	movlw	0
  3665  001144  6E0D               	movwf	(___aomod@divisor+4)^0,c
  3666  001146  0E00               	movlw	0
  3667  001148  6E0E               	movwf	(___aomod@divisor+5)^0,c
  3668  00114A  0E00               	movlw	0
  3669  00114C  6E0F               	movwf	(___aomod@divisor+6)^0,c
  3670  00114E  0E00               	movlw	0
  3671  001150  6E10               	movwf	(___aomod@divisor+7)^0,c
  3672  001152  EC26  F00C         	call	___aomod	;wreg free
  3673  001156  C001  F026         	movff	?___aomod,??_dtoa
  3674  00115A  C002  F027         	movff	?___aomod+1,??_dtoa+1
  3675  00115E  C003  F028         	movff	?___aomod+2,??_dtoa+2
  3676  001162  C004  F029         	movff	?___aomod+3,??_dtoa+3
  3677  001166  C005  F02A         	movff	?___aomod+4,??_dtoa+4
  3678  00116A  C006  F02B         	movff	?___aomod+5,??_dtoa+5
  3679  00116E  C007  F02C         	movff	?___aomod+6,??_dtoa+6
  3680  001172  C008  F02D         	movff	?___aomod+7,??_dtoa+7
  3681  001176  C026  F013         	movff	??_dtoa,abs@a
  3682  00117A  C028  F014         	movff	??_dtoa+2,abs@a+1
  3683  00117E  EC0B  F011         	call	_abs	;wreg free
  3684  001182  5013               	movf	?_abs^0,w,c
  3685  001184  0F30               	addlw	48
  3686  001186  6EDF               	movwf	indf2,c
  3687  001188                     
  3688                           ;D:\hk191dhbknam3hk1\e_vi_xu_ly_vi_dieu_khien_\software_needed_for_lab\folder_caidat\Mic
      +                          rochip\xc8\v2.10\pic\sources\c99\common\doprnt.c: 302:         --p;
  3689  001188  0630               	decf	dtoa@p^0,f,c
  3690  00118A  A0D8               	btfss	status,0,c
  3691  00118C  0631               	decf	(dtoa@p+1)^0,f,c
  3692  00118E                     
  3693                           ;D:\hk191dhbknam3hk1\e_vi_xu_ly_vi_dieu_khien_\software_needed_for_lab\folder_caidat\Mic
      +                          rochip\xc8\v2.10\pic\sources\c99\common\doprnt.c: 303:         --w;
  3694  00118E  0632               	decf	dtoa@w^0,f,c
  3695  001190  A0D8               	btfss	status,0,c
  3696  001192  0633               	decf	(dtoa@w+1)^0,f,c
  3697  001194                     
  3698                           ;D:\hk191dhbknam3hk1\e_vi_xu_ly_vi_dieu_khien_\software_needed_for_lab\folder_caidat\Mic
      +                          rochip\xc8\v2.10\pic\sources\c99\common\doprnt.c: 304:         n = n / 10;
  3699  001194  C036  F001         	movff	dtoa@n,___aodiv@dividend
  3700  001198  C037  F002         	movff	dtoa@n+1,___aodiv@dividend+1
  3701  00119C  C038  F003         	movff	dtoa@n+2,___aodiv@dividend+2
  3702  0011A0  C039  F004         	movff	dtoa@n+3,___aodiv@dividend+3
  3703  0011A4  C03A  F005         	movff	dtoa@n+4,___aodiv@dividend+4
  3704  0011A8  C03B  F006         	movff	dtoa@n+5,___aodiv@dividend+5
  3705  0011AC  C03C  F007         	movff	dtoa@n+6,___aodiv@dividend+6
  3706  0011B0  C03D  F008         	movff	dtoa@n+7,___aodiv@dividend+7
  3707  0011B4  0E0A               	movlw	10
  3708  0011B6  6E09               	movwf	___aodiv@divisor^0,c
  3709  0011B8  0E00               	movlw	0
  3710  0011BA  6E0A               	movwf	(___aodiv@divisor+1)^0,c
  3711  0011BC  0E00               	movlw	0
  3712  0011BE  6E0B               	movwf	(___aodiv@divisor+2)^0,c
  3713  0011C0  0E00               	movlw	0
  3714  0011C2  6E0C               	movwf	(___aodiv@divisor+3)^0,c
  3715  0011C4  0E00               	movlw	0
  3716  0011C6  6E0D               	movwf	(___aodiv@divisor+4)^0,c
  3717  0011C8  0E00               	movlw	0
  3718  0011CA  6E0E               	movwf	(___aodiv@divisor+5)^0,c
  3719  0011CC  0E00               	movlw	0
  3720  0011CE  6E0F               	movwf	(___aodiv@divisor+6)^0,c
  3721  0011D0  0E00               	movlw	0
  3722  0011D2  6E10               	movwf	(___aodiv@divisor+7)^0,c
  3723  0011D4  EC62  F00B         	call	___aodiv	;wreg free
  3724  0011D8  C001  F036         	movff	?___aodiv,dtoa@n
  3725  0011DC  C002  F037         	movff	?___aodiv+1,dtoa@n+1
  3726  0011E0  C003  F038         	movff	?___aodiv+2,dtoa@n+2
  3727  0011E4  C004  F039         	movff	?___aodiv+3,dtoa@n+3
  3728  0011E8  C005  F03A         	movff	?___aodiv+4,dtoa@n+4
  3729  0011EC  C006  F03B         	movff	?___aodiv+5,dtoa@n+5
  3730  0011F0  C007  F03C         	movff	?___aodiv+6,dtoa@n+6
  3731  0011F4  C008  F03D         	movff	?___aodiv+7,dtoa@n+7
  3732  0011F8                     i2l2148:
  3733                           
  3734                           ;D:\hk191dhbknam3hk1\e_vi_xu_ly_vi_dieu_khien_\software_needed_for_lab\folder_caidat\Mic
      +                          rochip\xc8\v2.10\pic\sources\c99\common\doprnt.c: 299:     while (!(i < 1) && (n || (0 <
      +                           p) || ((0 < w) && (flags & (1 << 1))))) {
  3735  0011F8  BE3F               	btfsc	(dtoa@i+1)^0,7,c
  3736  0011FA  EF07  F009         	goto	i2u119_41
  3737  0011FE  503F               	movf	(dtoa@i+1)^0,w,c
  3738  001200  E108               	bnz	i2u119_40
  3739  001202  043E               	decf	dtoa@i^0,w,c
  3740  001204  A0D8               	btfss	status,0,c
  3741  001206  EF07  F009         	goto	i2u119_41
  3742  00120A  EF09  F009         	goto	i2u119_40
  3743  00120E                     i2u119_41:
  3744  00120E  EF3A  F009         	goto	i2l2158
  3745  001212                     i2u119_40:
  3746  001212  5036               	movf	dtoa@n^0,w,c
  3747  001214  1037               	iorwf	(dtoa@n+1)^0,w,c
  3748  001216  1038               	iorwf	(dtoa@n+2)^0,w,c
  3749  001218  1039               	iorwf	(dtoa@n+3)^0,w,c
  3750  00121A  103A               	iorwf	(dtoa@n+4)^0,w,c
  3751  00121C  103B               	iorwf	(dtoa@n+5)^0,w,c
  3752  00121E  103C               	iorwf	(dtoa@n+6)^0,w,c
  3753  001220  103D               	iorwf	(dtoa@n+7)^0,w,c
  3754  001222  A4D8               	btfss	status,2,c
  3755  001224  EF16  F009         	goto	i2u120_41
  3756  001228  EF18  F009         	goto	i2u120_40
  3757  00122C                     i2u120_41:
  3758  00122C  EF80  F008         	goto	i2l2138
  3759  001230                     i2u120_40:
  3760  001230  BE31               	btfsc	(dtoa@p+1)^0,7,c
  3761  001232  EF25  F009         	goto	i2u121_40
  3762  001236  5031               	movf	(dtoa@p+1)^0,w,c
  3763  001238  E106               	bnz	i2u121_41
  3764  00123A  0430               	decf	dtoa@p^0,w,c
  3765  00123C  B0D8               	btfsc	status,0,c
  3766  00123E  EF23  F009         	goto	i2u121_41
  3767  001242  EF25  F009         	goto	i2u121_40
  3768  001246                     i2u121_41:
  3769  001246  EF80  F008         	goto	i2l2138
  3770  00124A                     i2u121_40:
  3771  00124A  BE33               	btfsc	(dtoa@w+1)^0,7,c
  3772  00124C  EF30  F009         	goto	i2u122_41
  3773  001250  5033               	movf	(dtoa@w+1)^0,w,c
  3774  001252  E108               	bnz	i2u122_40
  3775  001254  0432               	decf	dtoa@w^0,w,c
  3776  001256  A0D8               	btfss	status,0,c
  3777  001258  EF30  F009         	goto	i2u122_41
  3778  00125C  EF32  F009         	goto	i2u122_40
  3779  001260                     i2u122_41:
  3780  001260  EF3A  F009         	goto	i2l2158
  3781  001264                     i2u122_40:
  3782  001264  0100               	movlb	0	; () banked
  3783  001266  B366               	btfsc	_flags& (0+255),1,b
  3784  001268  EF38  F009         	goto	i2u123_41
  3785  00126C  EF3A  F009         	goto	i2u123_40
  3786  001270                     i2u123_41:
  3787  001270  EF80  F008         	goto	i2l2138
  3788  001274                     i2u123_40:
  3789  001274                     i2l2158:
  3790                           
  3791                           ;D:\hk191dhbknam3hk1\e_vi_xu_ly_vi_dieu_khien_\software_needed_for_lab\folder_caidat\Mic
      +                          rochip\xc8\v2.10\pic\sources\c99\common\doprnt.c: 308:     if (s || (flags & (1 << 2))) 
      +                          {
  3792  001274  5034               	movf	dtoa@s^0,w,c
  3793  001276  1035               	iorwf	(dtoa@s+1)^0,w,c
  3794  001278  A4D8               	btfss	status,2,c
  3795  00127A  EF41  F009         	goto	i2u124_41
  3796  00127E  EF43  F009         	goto	i2u124_40
  3797  001282                     i2u124_41:
  3798  001282  EF4B  F009         	goto	i2l2162
  3799  001286                     i2u124_40:
  3800  001286  0100               	movlb	0	; () banked
  3801  001288  A566               	btfss	_flags& (0+255),2,b
  3802  00128A  EF49  F009         	goto	i2u125_41
  3803  00128E  EF4B  F009         	goto	i2u125_40
  3804  001292                     i2u125_41:
  3805  001292  EF69  F009         	goto	i2l2172
  3806  001296                     i2u125_40:
  3807  001296                     i2l2162:
  3808                           
  3809                           ;D:\hk191dhbknam3hk1\e_vi_xu_ly_vi_dieu_khien_\software_needed_for_lab\folder_caidat\Mic
      +                          rochip\xc8\v2.10\pic\sources\c99\common\doprnt.c: 309:         --i;
  3810  001296  063E               	decf	dtoa@i^0,f,c
  3811  001298  A0D8               	btfss	status,0,c
  3812  00129A  063F               	decf	(dtoa@i+1)^0,f,c
  3813  00129C                     
  3814                           ;D:\hk191dhbknam3hk1\e_vi_xu_ly_vi_dieu_khien_\software_needed_for_lab\folder_caidat\Mic
      +                          rochip\xc8\v2.10\pic\sources\c99\common\doprnt.c: 310:         dbuf[i] = s ? '-' : '+';
  3815  00129C  5034               	movf	dtoa@s^0,w,c
  3816  00129E  1035               	iorwf	(dtoa@s+1)^0,w,c
  3817  0012A0  A4D8               	btfss	status,2,c
  3818  0012A2  EF55  F009         	goto	i2u126_41
  3819  0012A6  EF57  F009         	goto	i2u126_40
  3820  0012AA                     i2u126_41:
  3821  0012AA  EF5D  F009         	goto	i2l2168
  3822  0012AE                     i2u126_40:
  3823  0012AE  0E00               	movlw	0
  3824  0012B0  6E2F               	movwf	(_dtoa$1270+1)^0,c
  3825  0012B2  0E2B               	movlw	43
  3826  0012B4  6E2E               	movwf	_dtoa$1270^0,c
  3827  0012B6  EF61  F009         	goto	i2l2170
  3828  0012BA                     i2l2168:
  3829  0012BA  0E00               	movlw	0
  3830  0012BC  6E2F               	movwf	(_dtoa$1270+1)^0,c
  3831  0012BE  0E2D               	movlw	45
  3832  0012C0  6E2E               	movwf	_dtoa$1270^0,c
  3833  0012C2                     i2l2170:
  3834  0012C2  0E7A               	movlw	low _dbuf
  3835  0012C4  243E               	addwf	dtoa@i^0,w,c
  3836  0012C6  6ED9               	movwf	fsr2l,c
  3837  0012C8  0E00               	movlw	high _dbuf
  3838  0012CA  203F               	addwfc	(dtoa@i+1)^0,w,c
  3839  0012CC  6EDA               	movwf	fsr2h,c
  3840  0012CE  C02E  FFDF         	movff	_dtoa$1270,indf2
  3841  0012D2                     i2l2172:
  3842                           
  3843                           ;D:\hk191dhbknam3hk1\e_vi_xu_ly_vi_dieu_khien_\software_needed_for_lab\folder_caidat\Mic
      +                          rochip\xc8\v2.10\pic\sources\c99\common\doprnt.c: 314:     return pad(fp, &dbuf[i], w);
  3844  0012D2  C01C  F011         	movff	dtoa@fp,pad@fp
  3845  0012D6  C01D  F012         	movff	dtoa@fp+1,pad@fp+1
  3846  0012DA  0E7A               	movlw	low _dbuf
  3847  0012DC  243E               	addwf	dtoa@i^0,w,c
  3848  0012DE  6E13               	movwf	pad@buf^0,c
  3849  0012E0  0E00               	movlw	high _dbuf
  3850  0012E2  203F               	addwfc	(dtoa@i+1)^0,w,c
  3851  0012E4  6E14               	movwf	(pad@buf+1)^0,c
  3852  0012E6  C032  F015         	movff	dtoa@w,pad@p
  3853  0012EA  C033  F016         	movff	dtoa@w+1,pad@p+1
  3854  0012EE  ECB3  F00D         	call	_pad	;wreg free
  3855  0012F2  C011  F01C         	movff	?_pad,?_dtoa
  3856  0012F6  C012  F01D         	movff	?_pad+1,?_dtoa+1
  3857  0012FA  0012               	return		;funcret
  3858  0012FC                     __end_of_dtoa:
  3859                           	opt callstack 0
  3860                           
  3861 ;; *************** function _pad *****************
  3862 ;; Defined at:
  3863 ;;		line 72 in file "D:\hk191dhbknam3hk1\e_vi_xu_ly_vi_dieu_khien_\software_needed_for_lab\folder_caidat\Microchip\xc8\v
      +2.10\pic\sources\c99\common\doprnt.c"
  3864 ;; Parameters:    Size  Location     Type
  3865 ;;  fp              2   16[COMRAM] PTR struct _IO_FILE
  3866 ;;		 -> sprintf@f(6), 
  3867 ;;  buf             2   18[COMRAM] PTR unsigned char 
  3868 ;;		 -> dbuf(32), 
  3869 ;;  p               2   20[COMRAM] int 
  3870 ;; Auto vars:     Size  Location     Type
  3871 ;;  w               2   25[COMRAM] int 
  3872 ;;  i               2   23[COMRAM] int 
  3873 ;; Return value:  Size  Location     Type
  3874 ;;                  2   16[COMRAM] int 
  3875 ;; Registers used:
  3876 ;;		wreg, fsr1l, fsr1h, fsr2l, fsr2h, status,2, status,0, cstack
  3877 ;; Tracked objects:
  3878 ;;		On entry : 0/0
  3879 ;;		On exit  : 0/0
  3880 ;;		Unchanged: 0/0
  3881 ;; Data sizes:     COMRAM   BANK0   BANK1   BANK2   BANK3   BANK4   BANK5   BANK6   BANK7   BANK8   BANK9  BANK10  BANK1
      +1  BANK12  BANK13  BANK14  BANK15
  3882 ;;      Params:         6       0       0       0       0       0       0       0       0       0       0       0       
      +0       0       0       0       0
  3883 ;;      Locals:         4       0       0       0       0       0       0       0       0       0       0       0       
      +0       0       0       0       0
  3884 ;;      Temps:          1       0       0       0       0       0       0       0       0       0       0       0       
      +0       0       0       0       0
  3885 ;;      Totals:        11       0       0       0       0       0       0       0       0       0       0       0       
      +0       0       0       0       0
  3886 ;;Total ram usage:       11 bytes
  3887 ;; Hardware stack levels used:    1
  3888 ;; Hardware stack levels required when called:    3
  3889 ;; This function calls:
  3890 ;;		_fputc
  3891 ;;		_fputs
  3892 ;;		_strlen
  3893 ;; This function is called by:
  3894 ;;		_dtoa
  3895 ;; This function uses a non-reentrant model
  3896 ;;
  3897                           
  3898                           	psect	text29
  3899  001B66                     __ptext29:
  3900                           	opt callstack 0
  3901  001B66                     _pad:
  3902                           	opt callstack 17
  3903  001B66                     
  3904                           ;D:\hk191dhbknam3hk1\e_vi_xu_ly_vi_dieu_khien_\software_needed_for_lab\folder_caidat\Mic
      +                          rochip\xc8\v2.10\pic\sources\c99\common\doprnt.c: 72: static int pad(FILE *fp, char *buf
      +                          , int p);D:\hk191dhbknam3hk1\e_vi_xu_ly_vi_dieu_khien_\software_needed_for_lab\folder_ca
      +                          idat\Microchip\xc8\v2.10\pic\sources\c99\common\doprnt.c: 73: {;D:\hk191dhbknam3hk1\e_vi
      +                          _xu_ly_vi_dieu_khien_\software_needed_for_lab\folder_caidat\Microchip\xc8\v2.10\pic\sour
      +                          ces\c99\common\doprnt.c: 74:     int i, w;;D:\hk191dhbknam3hk1\e_vi_xu_ly_vi_dieu_khien_
      +                          \software_needed_for_lab\folder_caidat\Microchip\xc8\v2.10\pic\sources\c99\common\doprnt
      +                          .c: 77:     if (flags & (1 << 0)) {
  3905  001B66  0100               	movlb	0	; () banked
  3906  001B68  A166               	btfss	_flags& (0+255),0,b
  3907  001B6A  EFB9  F00D         	goto	i2u94_41
  3908  001B6E  EFBB  F00D         	goto	i2u94_40
  3909  001B72                     i2u94_41:
  3910  001B72  EFC5  F00D         	goto	i2l2012
  3911  001B76                     i2u94_40:
  3912  001B76                     
  3913                           ; BSR set to: 0
  3914                           ;D:\hk191dhbknam3hk1\e_vi_xu_ly_vi_dieu_khien_\software_needed_for_lab\folder_caidat\Mic
      +                          rochip\xc8\v2.10\pic\sources\c99\common\doprnt.c: 78:         fputs((const char *)buf, f
      +                          p);
  3915  001B76  C013  F00A         	movff	pad@buf,fputs@s
  3916  001B7A  C014  F00B         	movff	pad@buf+1,fputs@s+1
  3917  001B7E  C011  F00C         	movff	pad@fp,fputs@fp
  3918  001B82  C012  F00D         	movff	pad@fp+1,fputs@fp+1
  3919  001B86  ECA8  F010         	call	_fputs	;wreg free
  3920  001B8A                     i2l2012:
  3921                           
  3922                           ;D:\hk191dhbknam3hk1\e_vi_xu_ly_vi_dieu_khien_\software_needed_for_lab\folder_caidat\Mic
      +                          rochip\xc8\v2.10\pic\sources\c99\common\doprnt.c: 82:     w = (p < 0) ? 0 : p;
  3923  001B8A  BE16               	btfsc	(pad@p+1)^0,7,c
  3924  001B8C  EFCA  F00D         	goto	i2u95_41
  3925  001B90  EFCC  F00D         	goto	i2u95_40
  3926  001B94                     i2u95_41:
  3927  001B94  EFD2  F00D         	goto	i2l2016
  3928  001B98                     i2u95_40:
  3929  001B98  C015  F01A         	movff	pad@p,pad@w
  3930  001B9C  C016  F01B         	movff	pad@p+1,pad@w+1
  3931  001BA0  EFD6  F00D         	goto	i2l468
  3932  001BA4                     i2l2016:
  3933  001BA4  0E00               	movlw	0
  3934  001BA6  6E1B               	movwf	(pad@w+1)^0,c
  3935  001BA8  0E00               	movlw	0
  3936  001BAA  6E1A               	movwf	pad@w^0,c
  3937  001BAC                     i2l468:
  3938                           
  3939                           ;D:\hk191dhbknam3hk1\e_vi_xu_ly_vi_dieu_khien_\software_needed_for_lab\folder_caidat\Mic
      +                          rochip\xc8\v2.10\pic\sources\c99\common\doprnt.c: 83:     i = 0;
  3940  001BAC  0E00               	movlw	0
  3941  001BAE  6E19               	movwf	(pad@i+1)^0,c
  3942  001BB0  0E00               	movlw	0
  3943  001BB2  6E18               	movwf	pad@i^0,c
  3944                           
  3945                           ;D:\hk191dhbknam3hk1\e_vi_xu_ly_vi_dieu_khien_\software_needed_for_lab\folder_caidat\Mic
      +                          rochip\xc8\v2.10\pic\sources\c99\common\doprnt.c: 84:     while (i < w) {
  3946  001BB4  EFE8  F00D         	goto	i2l2022
  3947  001BB8                     i2l2018:
  3948                           
  3949                           ;D:\hk191dhbknam3hk1\e_vi_xu_ly_vi_dieu_khien_\software_needed_for_lab\folder_caidat\Mic
      +                          rochip\xc8\v2.10\pic\sources\c99\common\doprnt.c: 85:         fputc(' ', fp);
  3950  001BB8  0E00               	movlw	0
  3951  001BBA  6E02               	movwf	(fputc@c+1)^0,c
  3952  001BBC  0E20               	movlw	32
  3953  001BBE  6E01               	movwf	fputc@c^0,c
  3954  001BC0  C011  F003         	movff	pad@fp,fputc@fp
  3955  001BC4  C012  F004         	movff	pad@fp+1,fputc@fp+1
  3956  001BC8  EC4E  F00D         	call	_fputc	;wreg free
  3957  001BCC                     
  3958                           ;D:\hk191dhbknam3hk1\e_vi_xu_ly_vi_dieu_khien_\software_needed_for_lab\folder_caidat\Mic
      +                          rochip\xc8\v2.10\pic\sources\c99\common\doprnt.c: 86:         ++i;
  3959  001BCC  4A18               	infsnz	pad@i^0,f,c
  3960  001BCE  2A19               	incf	(pad@i+1)^0,f,c
  3961  001BD0                     i2l2022:
  3962                           
  3963                           ;D:\hk191dhbknam3hk1\e_vi_xu_ly_vi_dieu_khien_\software_needed_for_lab\folder_caidat\Mic
      +                          rochip\xc8\v2.10\pic\sources\c99\common\doprnt.c: 84:     while (i < w) {
  3964  001BD0  501A               	movf	pad@w^0,w,c
  3965  001BD2  5C18               	subwf	pad@i^0,w,c
  3966  001BD4  5019               	movf	(pad@i+1)^0,w,c
  3967  001BD6  0A80               	xorlw	128
  3968  001BD8  6E17               	movwf	??_pad^0,c
  3969  001BDA  501B               	movf	(pad@w+1)^0,w,c
  3970  001BDC  0A80               	xorlw	128
  3971  001BDE  5817               	subwfb	??_pad^0,w,c
  3972  001BE0  A0D8               	btfss	status,0,c
  3973  001BE2  EFF5  F00D         	goto	i2u96_41
  3974  001BE6  EFF7  F00D         	goto	i2u96_40
  3975  001BEA                     i2u96_41:
  3976  001BEA  EFDC  F00D         	goto	i2l2018
  3977  001BEE                     i2u96_40:
  3978  001BEE                     
  3979                           ;D:\hk191dhbknam3hk1\e_vi_xu_ly_vi_dieu_khien_\software_needed_for_lab\folder_caidat\Mic
      +                          rochip\xc8\v2.10\pic\sources\c99\common\doprnt.c: 90:     if (!(flags & (1 << 0))) {
  3980  001BEE  0100               	movlb	0	; () banked
  3981  001BF0  B166               	btfsc	_flags& (0+255),0,b
  3982  001BF2  EFFD  F00D         	goto	i2u97_41
  3983  001BF6  EFFF  F00D         	goto	i2u97_40
  3984  001BFA                     i2u97_41:
  3985  001BFA  EF09  F00E         	goto	i2l2026
  3986  001BFE                     i2u97_40:
  3987  001BFE                     
  3988                           ; BSR set to: 0
  3989                           ;D:\hk191dhbknam3hk1\e_vi_xu_ly_vi_dieu_khien_\software_needed_for_lab\folder_caidat\Mic
      +                          rochip\xc8\v2.10\pic\sources\c99\common\doprnt.c: 91:         fputs((const char *)buf, f
      +                          p);
  3990  001BFE  C013  F00A         	movff	pad@buf,fputs@s
  3991  001C02  C014  F00B         	movff	pad@buf+1,fputs@s+1
  3992  001C06  C011  F00C         	movff	pad@fp,fputs@fp
  3993  001C0A  C012  F00D         	movff	pad@fp+1,fputs@fp+1
  3994  001C0E  ECA8  F010         	call	_fputs	;wreg free
  3995  001C12                     i2l2026:
  3996                           
  3997                           ;D:\hk191dhbknam3hk1\e_vi_xu_ly_vi_dieu_khien_\software_needed_for_lab\folder_caidat\Mic
      +                          rochip\xc8\v2.10\pic\sources\c99\common\doprnt.c: 94:     return strlen(buf) + w;
  3998  001C12  C013  F001         	movff	pad@buf,strlen@s
  3999  001C16  C014  F002         	movff	pad@buf+1,strlen@s+1
  4000  001C1A  EC83  F011         	call	_strlen	;wreg free
  4001  001C1E  501A               	movf	pad@w^0,w,c
  4002  001C20  2401               	addwf	?_strlen^0,w,c
  4003  001C22  6E11               	movwf	?_pad^0,c
  4004  001C24  501B               	movf	(pad@w+1)^0,w,c
  4005  001C26  2002               	addwfc	(?_strlen+1)^0,w,c
  4006  001C28  6E12               	movwf	(?_pad+1)^0,c
  4007  001C2A  0012               	return		;funcret
  4008  001C2C                     __end_of_pad:
  4009                           	opt callstack 0
  4010                           
  4011 ;; *************** function _strlen *****************
  4012 ;; Defined at:
  4013 ;;		line 5 in file "D:\hk191dhbknam3hk1\e_vi_xu_ly_vi_dieu_khien_\software_needed_for_lab\folder_caidat\Microchip\xc8\v2
      +.10\pic\sources\c99\common\strlen.c"
  4014 ;; Parameters:    Size  Location     Type
  4015 ;;  s               2    0[COMRAM] PTR const unsigned char 
  4016 ;;		 -> dbuf(32), 
  4017 ;; Auto vars:     Size  Location     Type
  4018 ;;  a               2    2[COMRAM] PTR const unsigned char 
  4019 ;;		 -> dbuf(32), 
  4020 ;; Return value:  Size  Location     Type
  4021 ;;                  2    0[COMRAM] unsigned int 
  4022 ;; Registers used:
  4023 ;;		wreg, fsr2l, fsr2h, status,2, status,0
  4024 ;; Tracked objects:
  4025 ;;		On entry : 0/0
  4026 ;;		On exit  : 0/0
  4027 ;;		Unchanged: 0/0
  4028 ;; Data sizes:     COMRAM   BANK0   BANK1   BANK2   BANK3   BANK4   BANK5   BANK6   BANK7   BANK8   BANK9  BANK10  BANK1
      +1  BANK12  BANK13  BANK14  BANK15
  4029 ;;      Params:         2       0       0       0       0       0       0       0       0       0       0       0       
      +0       0       0       0       0
  4030 ;;      Locals:         2       0       0       0       0       0       0       0       0       0       0       0       
      +0       0       0       0       0
  4031 ;;      Temps:          0       0       0       0       0       0       0       0       0       0       0       0       
      +0       0       0       0       0
  4032 ;;      Totals:         4       0       0       0       0       0       0       0       0       0       0       0       
      +0       0       0       0       0
  4033 ;;Total ram usage:        4 bytes
  4034 ;; Hardware stack levels used:    1
  4035 ;; This function calls:
  4036 ;;		Nothing
  4037 ;; This function is called by:
  4038 ;;		_pad
  4039 ;; This function uses a non-reentrant model
  4040 ;;
  4041                           
  4042                           	psect	text30
  4043  002306                     __ptext30:
  4044                           	opt callstack 0
  4045  002306                     _strlen:
  4046                           	opt callstack 19
  4047  002306  C001  F003         	movff	strlen@s,strlen@a
  4048  00230A  C002  F004         	movff	strlen@s+1,strlen@a+1
  4049  00230E  EF8B  F011         	goto	i2l2002
  4050  002312                     i2l2000:
  4051  002312  4A01               	infsnz	strlen@s^0,f,c
  4052  002314  2A02               	incf	(strlen@s+1)^0,f,c
  4053  002316                     i2l2002:
  4054  002316  C001  FFD9         	movff	strlen@s,fsr2l
  4055  00231A  C002  FFDA         	movff	strlen@s+1,fsr2h
  4056  00231E  50DF               	movf	indf2,w,c
  4057  002320  A4D8               	btfss	status,2,c
  4058  002322  EF95  F011         	goto	i2u93_41
  4059  002326  EF97  F011         	goto	i2u93_40
  4060  00232A                     i2u93_41:
  4061  00232A  EF89  F011         	goto	i2l2000
  4062  00232E                     i2u93_40:
  4063  00232E  5003               	movf	strlen@a^0,w,c
  4064  002330  5C01               	subwf	strlen@s^0,w,c
  4065  002332  6E01               	movwf	?_strlen^0,c
  4066  002334  5004               	movf	(strlen@a+1)^0,w,c
  4067  002336  5802               	subwfb	(strlen@s+1)^0,w,c
  4068  002338  6E02               	movwf	(?_strlen+1)^0,c
  4069  00233A  0012               	return		;funcret
  4070  00233C                     __end_of_strlen:
  4071                           	opt callstack 0
  4072                           
  4073 ;; *************** function _fputs *****************
  4074 ;; Defined at:
  4075 ;;		line 8 in file "D:\hk191dhbknam3hk1\e_vi_xu_ly_vi_dieu_khien_\software_needed_for_lab\folder_caidat\Microchip\xc8\v2
      +.10\pic\sources\c99\common\nf_fputs.c"
  4076 ;; Parameters:    Size  Location     Type
  4077 ;;  s               2    9[COMRAM] PTR const unsigned char 
  4078 ;;		 -> dbuf(32), 
  4079 ;;  fp              2   11[COMRAM] PTR struct _IO_FILE
  4080 ;;		 -> sprintf@f(6), 
  4081 ;; Auto vars:     Size  Location     Type
  4082 ;;  i               2   14[COMRAM] int 
  4083 ;;  c               1   13[COMRAM] unsigned char 
  4084 ;; Return value:  Size  Location     Type
  4085 ;;                  2    9[COMRAM] int 
  4086 ;; Registers used:
  4087 ;;		wreg, fsr1l, fsr1h, fsr2l, fsr2h, status,2, status,0, cstack
  4088 ;; Tracked objects:
  4089 ;;		On entry : 0/0
  4090 ;;		On exit  : 0/0
  4091 ;;		Unchanged: 0/0
  4092 ;; Data sizes:     COMRAM   BANK0   BANK1   BANK2   BANK3   BANK4   BANK5   BANK6   BANK7   BANK8   BANK9  BANK10  BANK1
      +1  BANK12  BANK13  BANK14  BANK15
  4093 ;;      Params:         4       0       0       0       0       0       0       0       0       0       0       0       
      +0       0       0       0       0
  4094 ;;      Locals:         3       0       0       0       0       0       0       0       0       0       0       0       
      +0       0       0       0       0
  4095 ;;      Temps:          0       0       0       0       0       0       0       0       0       0       0       0       
      +0       0       0       0       0
  4096 ;;      Totals:         7       0       0       0       0       0       0       0       0       0       0       0       
      +0       0       0       0       0
  4097 ;;Total ram usage:        7 bytes
  4098 ;; Hardware stack levels used:    1
  4099 ;; Hardware stack levels required when called:    2
  4100 ;; This function calls:
  4101 ;;		_fputc
  4102 ;; This function is called by:
  4103 ;;		_pad
  4104 ;; This function uses a non-reentrant model
  4105 ;;
  4106                           
  4107                           	psect	text31
  4108  002150                     __ptext31:
  4109                           	opt callstack 0
  4110  002150                     _fputs:
  4111                           	opt callstack 17
  4112  002150  0E00               	movlw	0
  4113  002152  6E10               	movwf	(fputs@i+1)^0,c
  4114  002154  0E00               	movlw	0
  4115  002156  6E0F               	movwf	fputs@i^0,c
  4116  002158  EFB9  F010         	goto	i2l1996
  4117  00215C                     i2l1992:
  4118  00215C  C00E  F001         	movff	fputs@c,fputc@c
  4119  002160  6A02               	clrf	(fputc@c+1)^0,c
  4120  002162  C00C  F003         	movff	fputs@fp,fputc@fp
  4121  002166  C00D  F004         	movff	fputs@fp+1,fputc@fp+1
  4122  00216A  EC4E  F00D         	call	_fputc	;wreg free
  4123  00216E  4A0F               	infsnz	fputs@i^0,f,c
  4124  002170  2A10               	incf	(fputs@i+1)^0,f,c
  4125  002172                     i2l1996:
  4126  002172  500F               	movf	fputs@i^0,w,c
  4127  002174  240A               	addwf	fputs@s^0,w,c
  4128  002176  6ED9               	movwf	fsr2l,c
  4129  002178  5010               	movf	(fputs@i+1)^0,w,c
  4130  00217A  200B               	addwfc	(fputs@s+1)^0,w,c
  4131  00217C  6EDA               	movwf	fsr2h,c
  4132  00217E  50DF               	movf	indf2,w,c
  4133  002180  6E0E               	movwf	fputs@c^0,c
  4134  002182  500E               	movf	fputs@c^0,w,c
  4135  002184  A4D8               	btfss	status,2,c
  4136  002186  EFC7  F010         	goto	i2u92_41
  4137  00218A  EFC9  F010         	goto	i2u92_40
  4138  00218E                     i2u92_41:
  4139  00218E  EFAE  F010         	goto	i2l1992
  4140  002192                     i2u92_40:
  4141  002192  0012               	return		;funcret
  4142  002194                     __end_of_fputs:
  4143                           	opt callstack 0
  4144                           
  4145 ;; *************** function _fputc *****************
  4146 ;; Defined at:
  4147 ;;		line 8 in file "D:\hk191dhbknam3hk1\e_vi_xu_ly_vi_dieu_khien_\software_needed_for_lab\folder_caidat\Microchip\xc8\v2
      +.10\pic\sources\c99\common\nf_fputc.c"
  4148 ;; Parameters:    Size  Location     Type
  4149 ;;  c               2    0[COMRAM] int 
  4150 ;;  fp              2    2[COMRAM] PTR struct _IO_FILE
  4151 ;;		 -> sprintf@f(6), 
  4152 ;; Auto vars:     Size  Location     Type
  4153 ;;		None
  4154 ;; Return value:  Size  Location     Type
  4155 ;;                  2    0[COMRAM] int 
  4156 ;; Registers used:
  4157 ;;		wreg, fsr1l, fsr1h, fsr2l, fsr2h, status,2, status,0, cstack
  4158 ;; Tracked objects:
  4159 ;;		On entry : 0/0
  4160 ;;		On exit  : 0/0
  4161 ;;		Unchanged: 0/0
  4162 ;; Data sizes:     COMRAM   BANK0   BANK1   BANK2   BANK3   BANK4   BANK5   BANK6   BANK7   BANK8   BANK9  BANK10  BANK1
      +1  BANK12  BANK13  BANK14  BANK15
  4163 ;;      Params:         4       0       0       0       0       0       0       0       0       0       0       0       
      +0       0       0       0       0
  4164 ;;      Locals:         0       0       0       0       0       0       0       0       0       0       0       0       
      +0       0       0       0       0
  4165 ;;      Temps:          5       0       0       0       0       0       0       0       0       0       0       0       
      +0       0       0       0       0
  4166 ;;      Totals:         9       0       0       0       0       0       0       0       0       0       0       0       
      +0       0       0       0       0
  4167 ;;Total ram usage:        9 bytes
  4168 ;; Hardware stack levels used:    1
  4169 ;; Hardware stack levels required when called:    1
  4170 ;; This function calls:
  4171 ;;		_putch
  4172 ;; This function is called by:
  4173 ;;		_pad
  4174 ;;		_vfpfcnvrt
  4175 ;;		_fputs
  4176 ;; This function uses a non-reentrant model
  4177 ;;
  4178                           
  4179                           	psect	text32
  4180  001A9C                     __ptext32:
  4181                           	opt callstack 0
  4182  001A9C                     _fputc:
  4183                           	opt callstack 20
  4184  001A9C  5003               	movf	fputc@fp^0,w,c
  4185  001A9E  1004               	iorwf	(fputc@fp+1)^0,w,c
  4186  001AA0  B4D8               	btfsc	status,2,c
  4187  001AA2  EF55  F00D         	goto	i2u88_41
  4188  001AA6  EF57  F00D         	goto	i2u88_40
  4189  001AAA                     i2u88_41:
  4190  001AAA  EF60  F00D         	goto	i2l1980
  4191  001AAE                     i2u88_40:
  4192  001AAE  5003               	movf	fputc@fp^0,w,c
  4193  001AB0  1004               	iorwf	(fputc@fp+1)^0,w,c
  4194  001AB2  A4D8               	btfss	status,2,c
  4195  001AB4  EF5E  F00D         	goto	i2u89_41
  4196  001AB8  EF60  F00D         	goto	i2u89_40
  4197  001ABC                     i2u89_41:
  4198  001ABC  EF65  F00D         	goto	i2l1982
  4199  001AC0                     i2u89_40:
  4200  001AC0                     i2l1980:
  4201  001AC0  5001               	movf	fputc@c^0,w,c
  4202  001AC2  EC46  F012         	call	_putch
  4203  001AC6  EFB2  F00D         	goto	i2l1206
  4204  001ACA                     i2l1982:
  4205  001ACA  EE20 F004          	lfsr	2,4
  4206  001ACE  5003               	movf	fputc@fp^0,w,c
  4207  001AD0  26D9               	addwf	fsr2l,f,c
  4208  001AD2  5004               	movf	(fputc@fp+1)^0,w,c
  4209  001AD4  22DA               	addwfc	fsr2h,f,c
  4210  001AD6  50DE               	movf	postinc2,w,c
  4211  001AD8  10DE               	iorwf	postinc2,w,c
  4212  001ADA  B4D8               	btfsc	status,2,c
  4213  001ADC  EF72  F00D         	goto	i2u90_41
  4214  001AE0  EF74  F00D         	goto	i2u90_40
  4215  001AE4                     i2u90_41:
  4216  001AE4  EF8F  F00D         	goto	i2l1986
  4217  001AE8                     i2u90_40:
  4218  001AE8  EE20 F004          	lfsr	2,4
  4219  001AEC  5003               	movf	fputc@fp^0,w,c
  4220  001AEE  26D9               	addwf	fsr2l,f,c
  4221  001AF0  5004               	movf	(fputc@fp+1)^0,w,c
  4222  001AF2  22DA               	addwfc	fsr2h,f,c
  4223  001AF4  EE10 F002          	lfsr	1,2
  4224  001AF8  5003               	movf	fputc@fp^0,w,c
  4225  001AFA  26E1               	addwf	fsr1l,f,c
  4226  001AFC  5004               	movf	(fputc@fp+1)^0,w,c
  4227  001AFE  22E2               	addwfc	fsr1h,f,c
  4228  001B00  50DE               	movf	postinc2,w,c
  4229  001B02  5CE6               	subwf	postinc1,w,c
  4230  001B04  50E6               	movf	postinc1,w,c
  4231  001B06  0A80               	xorlw	128
  4232  001B08  6E09               	movwf	(??_fputc+4)^0,c
  4233  001B0A  50DE               	movf	postinc2,w,c
  4234  001B0C  0A80               	xorlw	128
  4235  001B0E  5809               	subwfb	(??_fputc+4)^0,w,c
  4236  001B10  B0D8               	btfsc	status,0,c
  4237  001B12  EF8D  F00D         	goto	i2u91_41
  4238  001B16  EF8F  F00D         	goto	i2u91_40
  4239  001B1A                     i2u91_41:
  4240  001B1A  EFB2  F00D         	goto	i2l1206
  4241  001B1E                     i2u91_40:
  4242  001B1E                     i2l1986:
  4243  001B1E  EE20 F002          	lfsr	2,2
  4244  001B22  5003               	movf	fputc@fp^0,w,c
  4245  001B24  26D9               	addwf	fsr2l,f,c
  4246  001B26  5004               	movf	(fputc@fp+1)^0,w,c
  4247  001B28  22DA               	addwfc	fsr2h,f,c
  4248  001B2A  CFDE F005          	movff	postinc2,??_fputc
  4249  001B2E  CFDD F006          	movff	postdec2,??_fputc+1
  4250  001B32  C003  FFD9         	movff	fputc@fp,fsr2l
  4251  001B36  C004  FFDA         	movff	fputc@fp+1,fsr2h
  4252  001B3A  CFDE F007          	movff	postinc2,??_fputc+2
  4253  001B3E  CFDD F008          	movff	postdec2,??_fputc+3
  4254  001B42  5005               	movf	??_fputc^0,w,c
  4255  001B44  2407               	addwf	(??_fputc+2)^0,w,c
  4256  001B46  6ED9               	movwf	fsr2l,c
  4257  001B48  5006               	movf	(??_fputc+1)^0,w,c
  4258  001B4A  2008               	addwfc	(??_fputc+3)^0,w,c
  4259  001B4C  6EDA               	movwf	fsr2h,c
  4260  001B4E  C001  FFDF         	movff	fputc@c,indf2
  4261  001B52  EE20 F002          	lfsr	2,2
  4262  001B56  5003               	movf	fputc@fp^0,w,c
  4263  001B58  26D9               	addwf	fsr2l,f,c
  4264  001B5A  5004               	movf	(fputc@fp+1)^0,w,c
  4265  001B5C  22DA               	addwfc	fsr2h,f,c
  4266  001B5E  2ADE               	incf	postinc2,f,c
  4267  001B60  0E00               	movlw	0
  4268  001B62  22DD               	addwfc	postdec2,f,c
  4269  001B64                     i2l1206:
  4270  001B64  0012               	return		;funcret
  4271  001B66                     __end_of_fputc:
  4272                           	opt callstack 0
  4273                           
  4274 ;; *************** function _putch *****************
  4275 ;; Defined at:
  4276 ;;		line 7 in file "D:\hk191dhbknam3hk1\e_vi_xu_ly_vi_dieu_khien_\software_needed_for_lab\folder_caidat\Microchip\xc8\v2
      +.10\pic\sources\c99\common\putch.c"
  4277 ;; Parameters:    Size  Location     Type
  4278 ;;  c               1    wreg     unsigned char 
  4279 ;; Auto vars:     Size  Location     Type
  4280 ;;  c               1    0[COMRAM] unsigned char 
  4281 ;; Return value:  Size  Location     Type
  4282 ;;                  1    wreg      void 
  4283 ;; Registers used:
  4284 ;;		wreg
  4285 ;; Tracked objects:
  4286 ;;		On entry : 0/0
  4287 ;;		On exit  : 0/0
  4288 ;;		Unchanged: 0/0
  4289 ;; Data sizes:     COMRAM   BANK0   BANK1   BANK2   BANK3   BANK4   BANK5   BANK6   BANK7   BANK8   BANK9  BANK10  BANK1
      +1  BANK12  BANK13  BANK14  BANK15
  4290 ;;      Params:         0       0       0       0       0       0       0       0       0       0       0       0       
      +0       0       0       0       0
  4291 ;;      Locals:         0       0       0       0       0       0       0       0       0       0       0       0       
      +0       0       0       0       0
  4292 ;;      Temps:          0       0       0       0       0       0       0       0       0       0       0       0       
      +0       0       0       0       0
  4293 ;;      Totals:         0       0       0       0       0       0       0       0       0       0       0       0       
      +0       0       0       0       0
  4294 ;;Total ram usage:        0 bytes
  4295 ;; Hardware stack levels used:    1
  4296 ;; This function calls:
  4297 ;;		Nothing
  4298 ;; This function is called by:
  4299 ;;		_fputc
  4300 ;; This function uses a non-reentrant model
  4301 ;;
  4302                           
  4303                           	psect	text33
  4304  00248C                     __ptext33:
  4305                           	opt callstack 0
  4306  00248C                     _putch:
  4307                           	opt callstack 20
  4308  00248C  0012               	return		;funcret
  4309  00248E                     __end_of_putch:
  4310                           	opt callstack 0
  4311                           
  4312 ;; *************** function _abs *****************
  4313 ;; Defined at:
  4314 ;;		line 1 in file "D:\hk191dhbknam3hk1\e_vi_xu_ly_vi_dieu_khien_\software_needed_for_lab\folder_caidat\Microchip\xc8\v2
      +.10\pic\sources\c99\common\abs.c"
  4315 ;; Parameters:    Size  Location     Type
  4316 ;;  a               2   18[COMRAM] int 
  4317 ;; Auto vars:     Size  Location     Type
  4318 ;;		None
  4319 ;; Return value:  Size  Location     Type
  4320 ;;                  2   18[COMRAM] int 
  4321 ;; Registers used:
  4322 ;;		wreg, status,2, status,0
  4323 ;; Tracked objects:
  4324 ;;		On entry : 0/0
  4325 ;;		On exit  : 0/0
  4326 ;;		Unchanged: 0/0
  4327 ;; Data sizes:     COMRAM   BANK0   BANK1   BANK2   BANK3   BANK4   BANK5   BANK6   BANK7   BANK8   BANK9  BANK10  BANK1
      +1  BANK12  BANK13  BANK14  BANK15
  4328 ;;      Params:         2       0       0       0       0       0       0       0       0       0       0       0       
      +0       0       0       0       0
  4329 ;;      Locals:         0       0       0       0       0       0       0       0       0       0       0       0       
      +0       0       0       0       0
  4330 ;;      Temps:          2       0       0       0       0       0       0       0       0       0       0       0       
      +0       0       0       0       0
  4331 ;;      Totals:         4       0       0       0       0       0       0       0       0       0       0       0       
      +0       0       0       0       0
  4332 ;;Total ram usage:        4 bytes
  4333 ;; Hardware stack levels used:    1
  4334 ;; This function calls:
  4335 ;;		Nothing
  4336 ;; This function is called by:
  4337 ;;		_dtoa
  4338 ;; This function uses a non-reentrant model
  4339 ;;
  4340                           
  4341                           	psect	text34
  4342  002216                     __ptext34:
  4343                           	opt callstack 0
  4344  002216                     _abs:
  4345                           	opt callstack 20
  4346  002216  BE14               	btfsc	(abs@a+1)^0,7,c
  4347  002218  EF18  F011         	goto	i2u98_40
  4348  00221C  5014               	movf	(abs@a+1)^0,w,c
  4349  00221E  E106               	bnz	i2u98_41
  4350  002220  0413               	decf	abs@a^0,w,c
  4351  002222  B0D8               	btfsc	status,0,c
  4352  002224  EF16  F011         	goto	i2u98_41
  4353  002228  EF18  F011         	goto	i2u98_40
  4354  00222C                     i2u98_41:
  4355  00222C  EF26  F011         	goto	i2l1191
  4356  002230                     i2u98_40:
  4357  002230  C013  F015         	movff	abs@a,??_abs
  4358  002234  C014  F016         	movff	abs@a+1,??_abs+1
  4359  002238  1E15               	comf	??_abs^0,f,c
  4360  00223A  1E16               	comf	(??_abs+1)^0,f,c
  4361  00223C  4A15               	infsnz	??_abs^0,f,c
  4362  00223E  2A16               	incf	(??_abs+1)^0,f,c
  4363  002240  C015  F013         	movff	??_abs,?_abs
  4364  002244  C016  F014         	movff	??_abs+1,?_abs+1
  4365  002248  EF2A  F011         	goto	i2l1194
  4366  00224C                     i2l1191:
  4367  00224C  C013  F013         	movff	abs@a,?_abs
  4368  002250  C014  F014         	movff	abs@a+1,?_abs+1
  4369  002254                     i2l1194:
  4370  002254  0012               	return		;funcret
  4371  002256                     __end_of_abs:
  4372                           	opt callstack 0
  4373                           
  4374 ;; *************** function ___aomod *****************
  4375 ;; Defined at:
  4376 ;;		line 9 in file "D:\hk191dhbknam3hk1\e_vi_xu_ly_vi_dieu_khien_\software_needed_for_lab\folder_caidat\Microchip\xc8\v2
      +.10\pic\sources\c99\common\aomod.c"
  4377 ;; Parameters:    Size  Location     Type
  4378 ;;  dividend        8    0[COMRAM] long long 
  4379 ;;  divisor         8    8[COMRAM] long long 
  4380 ;; Auto vars:     Size  Location     Type
  4381 ;;  sign            1   17[COMRAM] unsigned char 
  4382 ;;  counter         1   16[COMRAM] unsigned char 
  4383 ;; Return value:  Size  Location     Type
  4384 ;;                  8    0[COMRAM] long long 
  4385 ;; Registers used:
  4386 ;;		wreg, status,2, status,0
  4387 ;; Tracked objects:
  4388 ;;		On entry : 0/0
  4389 ;;		On exit  : 0/0
  4390 ;;		Unchanged: 0/0
  4391 ;; Data sizes:     COMRAM   BANK0   BANK1   BANK2   BANK3   BANK4   BANK5   BANK6   BANK7   BANK8   BANK9  BANK10  BANK1
      +1  BANK12  BANK13  BANK14  BANK15
  4392 ;;      Params:        16       0       0       0       0       0       0       0       0       0       0       0       
      +0       0       0       0       0
  4393 ;;      Locals:         2       0       0       0       0       0       0       0       0       0       0       0       
      +0       0       0       0       0
  4394 ;;      Temps:          0       0       0       0       0       0       0       0       0       0       0       0       
      +0       0       0       0       0
  4395 ;;      Totals:        18       0       0       0       0       0       0       0       0       0       0       0       
      +0       0       0       0       0
  4396 ;;Total ram usage:       18 bytes
  4397 ;; Hardware stack levels used:    1
  4398 ;; This function calls:
  4399 ;;		Nothing
  4400 ;; This function is called by:
  4401 ;;		_dtoa
  4402 ;; This function uses a non-reentrant model
  4403 ;;
  4404                           
  4405                           	psect	text35
  4406  00184C                     __ptext35:
  4407                           	opt callstack 0
  4408  00184C                     ___aomod:
  4409                           	opt callstack 20
  4410  00184C  0E00               	movlw	0
  4411  00184E  6E12               	movwf	___aomod@sign^0,c
  4412  001850  BE08               	btfsc	(___aomod@dividend+7)^0,7,c
  4413  001852  EF2F  F00C         	goto	i2u106_40
  4414  001856  EF2D  F00C         	goto	i2u106_41
  4415  00185A                     i2u106_41:
  4416  00185A  EF41  F00C         	goto	i2l2086
  4417  00185E                     i2u106_40:
  4418  00185E  1E08               	comf	(___aomod@dividend+7)^0,f,c
  4419  001860  1E07               	comf	(___aomod@dividend+6)^0,f,c
  4420  001862  1E06               	comf	(___aomod@dividend+5)^0,f,c
  4421  001864  1E05               	comf	(___aomod@dividend+4)^0,f,c
  4422  001866  1E04               	comf	(___aomod@dividend+3)^0,f,c
  4423  001868  1E03               	comf	(___aomod@dividend+2)^0,f,c
  4424  00186A  1E02               	comf	(___aomod@dividend+1)^0,f,c
  4425  00186C  6C01               	negf	___aomod@dividend^0,c
  4426  00186E  0E00               	movlw	0
  4427  001870  2202               	addwfc	(___aomod@dividend+1)^0,f,c
  4428  001872  2203               	addwfc	(___aomod@dividend+2)^0,f,c
  4429  001874  2204               	addwfc	(___aomod@dividend+3)^0,f,c
  4430  001876  2205               	addwfc	(___aomod@dividend+4)^0,f,c
  4431  001878  2206               	addwfc	(___aomod@dividend+5)^0,f,c
  4432  00187A  2207               	addwfc	(___aomod@dividend+6)^0,f,c
  4433  00187C  2208               	addwfc	(___aomod@dividend+7)^0,f,c
  4434  00187E  0E01               	movlw	1
  4435  001880  6E12               	movwf	___aomod@sign^0,c
  4436  001882                     i2l2086:
  4437  001882  BE10               	btfsc	(___aomod@divisor+7)^0,7,c
  4438  001884  EF48  F00C         	goto	i2u107_40
  4439  001888  EF46  F00C         	goto	i2u107_41
  4440  00188C                     i2u107_41:
  4441  00188C  EF58  F00C         	goto	i2l2090
  4442  001890                     i2u107_40:
  4443  001890  1E10               	comf	(___aomod@divisor+7)^0,f,c
  4444  001892  1E0F               	comf	(___aomod@divisor+6)^0,f,c
  4445  001894  1E0E               	comf	(___aomod@divisor+5)^0,f,c
  4446  001896  1E0D               	comf	(___aomod@divisor+4)^0,f,c
  4447  001898  1E0C               	comf	(___aomod@divisor+3)^0,f,c
  4448  00189A  1E0B               	comf	(___aomod@divisor+2)^0,f,c
  4449  00189C  1E0A               	comf	(___aomod@divisor+1)^0,f,c
  4450  00189E  6C09               	negf	___aomod@divisor^0,c
  4451  0018A0  0E00               	movlw	0
  4452  0018A2  220A               	addwfc	(___aomod@divisor+1)^0,f,c
  4453  0018A4  220B               	addwfc	(___aomod@divisor+2)^0,f,c
  4454  0018A6  220C               	addwfc	(___aomod@divisor+3)^0,f,c
  4455  0018A8  220D               	addwfc	(___aomod@divisor+4)^0,f,c
  4456  0018AA  220E               	addwfc	(___aomod@divisor+5)^0,f,c
  4457  0018AC  220F               	addwfc	(___aomod@divisor+6)^0,f,c
  4458  0018AE  2210               	addwfc	(___aomod@divisor+7)^0,f,c
  4459  0018B0                     i2l2090:
  4460  0018B0  5009               	movf	___aomod@divisor^0,w,c
  4461  0018B2  100A               	iorwf	(___aomod@divisor+1)^0,w,c
  4462  0018B4  100B               	iorwf	(___aomod@divisor+2)^0,w,c
  4463  0018B6  100C               	iorwf	(___aomod@divisor+3)^0,w,c
  4464  0018B8  100D               	iorwf	(___aomod@divisor+4)^0,w,c
  4465  0018BA  100E               	iorwf	(___aomod@divisor+5)^0,w,c
  4466  0018BC  100F               	iorwf	(___aomod@divisor+6)^0,w,c
  4467  0018BE  1010               	iorwf	(___aomod@divisor+7)^0,w,c
  4468  0018C0  B4D8               	btfsc	status,2,c
  4469  0018C2  EF65  F00C         	goto	i2u108_41
  4470  0018C6  EF67  F00C         	goto	i2u108_40
  4471  0018CA                     i2u108_41:
  4472  0018CA  EFAF  F00C         	goto	i2l2106
  4473  0018CE                     i2u108_40:
  4474  0018CE  0E01               	movlw	1
  4475  0018D0  6E11               	movwf	___aomod@counter^0,c
  4476  0018D2  EF75  F00C         	goto	i2l2096
  4477  0018D6                     i2l2094:
  4478  0018D6  90D8               	bcf	status,0,c
  4479  0018D8  3609               	rlcf	___aomod@divisor^0,f,c
  4480  0018DA  360A               	rlcf	(___aomod@divisor+1)^0,f,c
  4481  0018DC  360B               	rlcf	(___aomod@divisor+2)^0,f,c
  4482  0018DE  360C               	rlcf	(___aomod@divisor+3)^0,f,c
  4483  0018E0  360D               	rlcf	(___aomod@divisor+4)^0,f,c
  4484  0018E2  360E               	rlcf	(___aomod@divisor+5)^0,f,c
  4485  0018E4  360F               	rlcf	(___aomod@divisor+6)^0,f,c
  4486  0018E6  3610               	rlcf	(___aomod@divisor+7)^0,f,c
  4487  0018E8  2A11               	incf	___aomod@counter^0,f,c
  4488  0018EA                     i2l2096:
  4489  0018EA  AE10               	btfss	(___aomod@divisor+7)^0,7,c
  4490  0018EC  EF7A  F00C         	goto	i2u109_41
  4491  0018F0  EF7C  F00C         	goto	i2u109_40
  4492  0018F4                     i2u109_41:
  4493  0018F4  EF6B  F00C         	goto	i2l2094
  4494  0018F8                     i2u109_40:
  4495  0018F8                     i2l2098:
  4496  0018F8  5009               	movf	___aomod@divisor^0,w,c
  4497  0018FA  5C01               	subwf	___aomod@dividend^0,w,c
  4498  0018FC  500A               	movf	(___aomod@divisor+1)^0,w,c
  4499  0018FE  5802               	subwfb	(___aomod@dividend+1)^0,w,c
  4500  001900  500B               	movf	(___aomod@divisor+2)^0,w,c
  4501  001902  5803               	subwfb	(___aomod@dividend+2)^0,w,c
  4502  001904  500C               	movf	(___aomod@divisor+3)^0,w,c
  4503  001906  5804               	subwfb	(___aomod@dividend+3)^0,w,c
  4504  001908  500D               	movf	(___aomod@divisor+4)^0,w,c
  4505  00190A  5805               	subwfb	(___aomod@dividend+4)^0,w,c
  4506  00190C  500E               	movf	(___aomod@divisor+5)^0,w,c
  4507  00190E  5806               	subwfb	(___aomod@dividend+5)^0,w,c
  4508  001910  500F               	movf	(___aomod@divisor+6)^0,w,c
  4509  001912  5807               	subwfb	(___aomod@dividend+6)^0,w,c
  4510  001914  5010               	movf	(___aomod@divisor+7)^0,w,c
  4511  001916  5808               	subwfb	(___aomod@dividend+7)^0,w,c
  4512  001918  A0D8               	btfss	status,0,c
  4513  00191A  EF91  F00C         	goto	i2u110_41
  4514  00191E  EF93  F00C         	goto	i2u110_40
  4515  001922                     i2u110_41:
  4516  001922  EFA3  F00C         	goto	i2l2102
  4517  001926                     i2u110_40:
  4518  001926  5009               	movf	___aomod@divisor^0,w,c
  4519  001928  5E01               	subwf	___aomod@dividend^0,f,c
  4520  00192A  500A               	movf	(___aomod@divisor+1)^0,w,c
  4521  00192C  5A02               	subwfb	(___aomod@dividend+1)^0,f,c
  4522  00192E  500B               	movf	(___aomod@divisor+2)^0,w,c
  4523  001930  5A03               	subwfb	(___aomod@dividend+2)^0,f,c
  4524  001932  500C               	movf	(___aomod@divisor+3)^0,w,c
  4525  001934  5A04               	subwfb	(___aomod@dividend+3)^0,f,c
  4526  001936  500D               	movf	(___aomod@divisor+4)^0,w,c
  4527  001938  5A05               	subwfb	(___aomod@dividend+4)^0,f,c
  4528  00193A  500E               	movf	(___aomod@divisor+5)^0,w,c
  4529  00193C  5A06               	subwfb	(___aomod@dividend+5)^0,f,c
  4530  00193E  500F               	movf	(___aomod@divisor+6)^0,w,c
  4531  001940  5A07               	subwfb	(___aomod@dividend+6)^0,f,c
  4532  001942  5010               	movf	(___aomod@divisor+7)^0,w,c
  4533  001944  5A08               	subwfb	(___aomod@dividend+7)^0,f,c
  4534  001946                     i2l2102:
  4535  001946  90D8               	bcf	status,0,c
  4536  001948  3210               	rrcf	(___aomod@divisor+7)^0,f,c
  4537  00194A  320F               	rrcf	(___aomod@divisor+6)^0,f,c
  4538  00194C  320E               	rrcf	(___aomod@divisor+5)^0,f,c
  4539  00194E  320D               	rrcf	(___aomod@divisor+4)^0,f,c
  4540  001950  320C               	rrcf	(___aomod@divisor+3)^0,f,c
  4541  001952  320B               	rrcf	(___aomod@divisor+2)^0,f,c
  4542  001954  320A               	rrcf	(___aomod@divisor+1)^0,f,c
  4543  001956  3209               	rrcf	___aomod@divisor^0,f,c
  4544  001958  2E11               	decfsz	___aomod@counter^0,f,c
  4545  00195A  EF7C  F00C         	goto	i2l2098
  4546  00195E                     i2l2106:
  4547  00195E  5012               	movf	___aomod@sign^0,w,c
  4548  001960  B4D8               	btfsc	status,2,c
  4549  001962  EFB5  F00C         	goto	i2u111_41
  4550  001966  EFB7  F00C         	goto	i2u111_40
  4551  00196A                     i2u111_41:
  4552  00196A  EFC7  F00C         	goto	i2l2110
  4553  00196E                     i2u111_40:
  4554  00196E  1E08               	comf	(___aomod@dividend+7)^0,f,c
  4555  001970  1E07               	comf	(___aomod@dividend+6)^0,f,c
  4556  001972  1E06               	comf	(___aomod@dividend+5)^0,f,c
  4557  001974  1E05               	comf	(___aomod@dividend+4)^0,f,c
  4558  001976  1E04               	comf	(___aomod@dividend+3)^0,f,c
  4559  001978  1E03               	comf	(___aomod@dividend+2)^0,f,c
  4560  00197A  1E02               	comf	(___aomod@dividend+1)^0,f,c
  4561  00197C  6C01               	negf	___aomod@dividend^0,c
  4562  00197E  0E00               	movlw	0
  4563  001980  2202               	addwfc	(___aomod@dividend+1)^0,f,c
  4564  001982  2203               	addwfc	(___aomod@dividend+2)^0,f,c
  4565  001984  2204               	addwfc	(___aomod@dividend+3)^0,f,c
  4566  001986  2205               	addwfc	(___aomod@dividend+4)^0,f,c
  4567  001988  2206               	addwfc	(___aomod@dividend+5)^0,f,c
  4568  00198A  2207               	addwfc	(___aomod@dividend+6)^0,f,c
  4569  00198C  2208               	addwfc	(___aomod@dividend+7)^0,f,c
  4570  00198E                     i2l2110:
  4571  00198E  C001  F001         	movff	___aomod@dividend,?___aomod
  4572  001992  C002  F002         	movff	___aomod@dividend+1,?___aomod+1
  4573  001996  C003  F003         	movff	___aomod@dividend+2,?___aomod+2
  4574  00199A  C004  F004         	movff	___aomod@dividend+3,?___aomod+3
  4575  00199E  C005  F005         	movff	___aomod@dividend+4,?___aomod+4
  4576  0019A2  C006  F006         	movff	___aomod@dividend+5,?___aomod+5
  4577  0019A6  C007  F007         	movff	___aomod@dividend+6,?___aomod+6
  4578  0019AA  C008  F008         	movff	___aomod@dividend+7,?___aomod+7
  4579  0019AE  0012               	return		;funcret
  4580  0019B0                     __end_of___aomod:
  4581                           	opt callstack 0
  4582                           
  4583 ;; *************** function ___aodiv *****************
  4584 ;; Defined at:
  4585 ;;		line 9 in file "D:\hk191dhbknam3hk1\e_vi_xu_ly_vi_dieu_khien_\software_needed_for_lab\folder_caidat\Microchip\xc8\v2
      +.10\pic\sources\c99\common\aodiv.c"
  4586 ;; Parameters:    Size  Location     Type
  4587 ;;  dividend        8    0[COMRAM] long long 
  4588 ;;  divisor         8    8[COMRAM] long long 
  4589 ;; Auto vars:     Size  Location     Type
  4590 ;;  quotient        8   18[COMRAM] long long 
  4591 ;;  sign            1   17[COMRAM] unsigned char 
  4592 ;;  counter         1   16[COMRAM] unsigned char 
  4593 ;; Return value:  Size  Location     Type
  4594 ;;                  8    0[COMRAM] long long 
  4595 ;; Registers used:
  4596 ;;		wreg, fsr2l, fsr2h, status,2, status,0
  4597 ;; Tracked objects:
  4598 ;;		On entry : 0/0
  4599 ;;		On exit  : 0/0
  4600 ;;		Unchanged: 0/0
  4601 ;; Data sizes:     COMRAM   BANK0   BANK1   BANK2   BANK3   BANK4   BANK5   BANK6   BANK7   BANK8   BANK9  BANK10  BANK1
      +1  BANK12  BANK13  BANK14  BANK15
  4602 ;;      Params:        16       0       0       0       0       0       0       0       0       0       0       0       
      +0       0       0       0       0
  4603 ;;      Locals:        10       0       0       0       0       0       0       0       0       0       0       0       
      +0       0       0       0       0
  4604 ;;      Temps:          0       0       0       0       0       0       0       0       0       0       0       0       
      +0       0       0       0       0
  4605 ;;      Totals:        26       0       0       0       0       0       0       0       0       0       0       0       
      +0       0       0       0       0
  4606 ;;Total ram usage:       26 bytes
  4607 ;; Hardware stack levels used:    1
  4608 ;; This function calls:
  4609 ;;		Nothing
  4610 ;; This function is called by:
  4611 ;;		_dtoa
  4612 ;; This function uses a non-reentrant model
  4613 ;;
  4614                           
  4615                           	psect	text36
  4616  0016C4                     __ptext36:
  4617                           	opt callstack 0
  4618  0016C4                     ___aodiv:
  4619                           	opt callstack 20
  4620  0016C4  0E00               	movlw	0
  4621  0016C6  6E12               	movwf	___aodiv@sign^0,c
  4622  0016C8  BE10               	btfsc	(___aodiv@divisor+7)^0,7,c
  4623  0016CA  EF6B  F00B         	goto	i2u99_40
  4624  0016CE  EF69  F00B         	goto	i2u99_41
  4625  0016D2                     i2u99_41:
  4626  0016D2  EF7D  F00B         	goto	i2l2042
  4627  0016D6                     i2u99_40:
  4628  0016D6  1E10               	comf	(___aodiv@divisor+7)^0,f,c
  4629  0016D8  1E0F               	comf	(___aodiv@divisor+6)^0,f,c
  4630  0016DA  1E0E               	comf	(___aodiv@divisor+5)^0,f,c
  4631  0016DC  1E0D               	comf	(___aodiv@divisor+4)^0,f,c
  4632  0016DE  1E0C               	comf	(___aodiv@divisor+3)^0,f,c
  4633  0016E0  1E0B               	comf	(___aodiv@divisor+2)^0,f,c
  4634  0016E2  1E0A               	comf	(___aodiv@divisor+1)^0,f,c
  4635  0016E4  6C09               	negf	___aodiv@divisor^0,c
  4636  0016E6  0E00               	movlw	0
  4637  0016E8  220A               	addwfc	(___aodiv@divisor+1)^0,f,c
  4638  0016EA  220B               	addwfc	(___aodiv@divisor+2)^0,f,c
  4639  0016EC  220C               	addwfc	(___aodiv@divisor+3)^0,f,c
  4640  0016EE  220D               	addwfc	(___aodiv@divisor+4)^0,f,c
  4641  0016F0  220E               	addwfc	(___aodiv@divisor+5)^0,f,c
  4642  0016F2  220F               	addwfc	(___aodiv@divisor+6)^0,f,c
  4643  0016F4  2210               	addwfc	(___aodiv@divisor+7)^0,f,c
  4644  0016F6  0E01               	movlw	1
  4645  0016F8  6E12               	movwf	___aodiv@sign^0,c
  4646  0016FA                     i2l2042:
  4647  0016FA  BE08               	btfsc	(___aodiv@dividend+7)^0,7,c
  4648  0016FC  EF84  F00B         	goto	i2u100_40
  4649  001700  EF82  F00B         	goto	i2u100_41
  4650  001704                     i2u100_41:
  4651  001704  EF96  F00B         	goto	i2l2048
  4652  001708                     i2u100_40:
  4653  001708  1E08               	comf	(___aodiv@dividend+7)^0,f,c
  4654  00170A  1E07               	comf	(___aodiv@dividend+6)^0,f,c
  4655  00170C  1E06               	comf	(___aodiv@dividend+5)^0,f,c
  4656  00170E  1E05               	comf	(___aodiv@dividend+4)^0,f,c
  4657  001710  1E04               	comf	(___aodiv@dividend+3)^0,f,c
  4658  001712  1E03               	comf	(___aodiv@dividend+2)^0,f,c
  4659  001714  1E02               	comf	(___aodiv@dividend+1)^0,f,c
  4660  001716  6C01               	negf	___aodiv@dividend^0,c
  4661  001718  0E00               	movlw	0
  4662  00171A  2202               	addwfc	(___aodiv@dividend+1)^0,f,c
  4663  00171C  2203               	addwfc	(___aodiv@dividend+2)^0,f,c
  4664  00171E  2204               	addwfc	(___aodiv@dividend+3)^0,f,c
  4665  001720  2205               	addwfc	(___aodiv@dividend+4)^0,f,c
  4666  001722  2206               	addwfc	(___aodiv@dividend+5)^0,f,c
  4667  001724  2207               	addwfc	(___aodiv@dividend+6)^0,f,c
  4668  001726  2208               	addwfc	(___aodiv@dividend+7)^0,f,c
  4669  001728  0E01               	movlw	1
  4670  00172A  1A12               	xorwf	___aodiv@sign^0,f,c
  4671  00172C                     i2l2048:
  4672  00172C  EE20  F013         	lfsr	2,___aodiv@quotient
  4673  001730  0E07               	movlw	7
  4674  001732                     i2u101_41:
  4675  001732  6ADE               	clrf	postinc2,c
  4676  001734  06E8               	decf	wreg,f,c
  4677  001736  E2FD               	bc	i2u101_41
  4678  001738  5009               	movf	___aodiv@divisor^0,w,c
  4679  00173A  100A               	iorwf	(___aodiv@divisor+1)^0,w,c
  4680  00173C  100B               	iorwf	(___aodiv@divisor+2)^0,w,c
  4681  00173E  100C               	iorwf	(___aodiv@divisor+3)^0,w,c
  4682  001740  100D               	iorwf	(___aodiv@divisor+4)^0,w,c
  4683  001742  100E               	iorwf	(___aodiv@divisor+5)^0,w,c
  4684  001744  100F               	iorwf	(___aodiv@divisor+6)^0,w,c
  4685  001746  1010               	iorwf	(___aodiv@divisor+7)^0,w,c
  4686  001748  B4D8               	btfsc	status,2,c
  4687  00174A  EFA9  F00B         	goto	i2u102_41
  4688  00174E  EFAB  F00B         	goto	i2u102_40
  4689  001752                     i2u102_41:
  4690  001752  EFFD  F00B         	goto	i2l2070
  4691  001756                     i2u102_40:
  4692  001756  0E01               	movlw	1
  4693  001758  6E11               	movwf	___aodiv@counter^0,c
  4694  00175A  EFB9  F00B         	goto	i2l2056
  4695  00175E                     i2l2054:
  4696  00175E  90D8               	bcf	status,0,c
  4697  001760  3609               	rlcf	___aodiv@divisor^0,f,c
  4698  001762  360A               	rlcf	(___aodiv@divisor+1)^0,f,c
  4699  001764  360B               	rlcf	(___aodiv@divisor+2)^0,f,c
  4700  001766  360C               	rlcf	(___aodiv@divisor+3)^0,f,c
  4701  001768  360D               	rlcf	(___aodiv@divisor+4)^0,f,c
  4702  00176A  360E               	rlcf	(___aodiv@divisor+5)^0,f,c
  4703  00176C  360F               	rlcf	(___aodiv@divisor+6)^0,f,c
  4704  00176E  3610               	rlcf	(___aodiv@divisor+7)^0,f,c
  4705  001770  2A11               	incf	___aodiv@counter^0,f,c
  4706  001772                     i2l2056:
  4707  001772  AE10               	btfss	(___aodiv@divisor+7)^0,7,c
  4708  001774  EFBE  F00B         	goto	i2u103_41
  4709  001778  EFC0  F00B         	goto	i2u103_40
  4710  00177C                     i2u103_41:
  4711  00177C  EFAF  F00B         	goto	i2l2054
  4712  001780                     i2u103_40:
  4713  001780                     i2l2058:
  4714  001780  90D8               	bcf	status,0,c
  4715  001782  3613               	rlcf	___aodiv@quotient^0,f,c
  4716  001784  3614               	rlcf	(___aodiv@quotient+1)^0,f,c
  4717  001786  3615               	rlcf	(___aodiv@quotient+2)^0,f,c
  4718  001788  3616               	rlcf	(___aodiv@quotient+3)^0,f,c
  4719  00178A  3617               	rlcf	(___aodiv@quotient+4)^0,f,c
  4720  00178C  3618               	rlcf	(___aodiv@quotient+5)^0,f,c
  4721  00178E  3619               	rlcf	(___aodiv@quotient+6)^0,f,c
  4722  001790  361A               	rlcf	(___aodiv@quotient+7)^0,f,c
  4723  001792  5009               	movf	___aodiv@divisor^0,w,c
  4724  001794  5C01               	subwf	___aodiv@dividend^0,w,c
  4725  001796  500A               	movf	(___aodiv@divisor+1)^0,w,c
  4726  001798  5802               	subwfb	(___aodiv@dividend+1)^0,w,c
  4727  00179A  500B               	movf	(___aodiv@divisor+2)^0,w,c
  4728  00179C  5803               	subwfb	(___aodiv@dividend+2)^0,w,c
  4729  00179E  500C               	movf	(___aodiv@divisor+3)^0,w,c
  4730  0017A0  5804               	subwfb	(___aodiv@dividend+3)^0,w,c
  4731  0017A2  500D               	movf	(___aodiv@divisor+4)^0,w,c
  4732  0017A4  5805               	subwfb	(___aodiv@dividend+4)^0,w,c
  4733  0017A6  500E               	movf	(___aodiv@divisor+5)^0,w,c
  4734  0017A8  5806               	subwfb	(___aodiv@dividend+5)^0,w,c
  4735  0017AA  500F               	movf	(___aodiv@divisor+6)^0,w,c
  4736  0017AC  5807               	subwfb	(___aodiv@dividend+6)^0,w,c
  4737  0017AE  5010               	movf	(___aodiv@divisor+7)^0,w,c
  4738  0017B0  5808               	subwfb	(___aodiv@dividend+7)^0,w,c
  4739  0017B2  A0D8               	btfss	status,0,c
  4740  0017B4  EFDE  F00B         	goto	i2u104_41
  4741  0017B8  EFE0  F00B         	goto	i2u104_40
  4742  0017BC                     i2u104_41:
  4743  0017BC  EFF1  F00B         	goto	i2l2066
  4744  0017C0                     i2u104_40:
  4745  0017C0  5009               	movf	___aodiv@divisor^0,w,c
  4746  0017C2  5E01               	subwf	___aodiv@dividend^0,f,c
  4747  0017C4  500A               	movf	(___aodiv@divisor+1)^0,w,c
  4748  0017C6  5A02               	subwfb	(___aodiv@dividend+1)^0,f,c
  4749  0017C8  500B               	movf	(___aodiv@divisor+2)^0,w,c
  4750  0017CA  5A03               	subwfb	(___aodiv@dividend+2)^0,f,c
  4751  0017CC  500C               	movf	(___aodiv@divisor+3)^0,w,c
  4752  0017CE  5A04               	subwfb	(___aodiv@dividend+3)^0,f,c
  4753  0017D0  500D               	movf	(___aodiv@divisor+4)^0,w,c
  4754  0017D2  5A05               	subwfb	(___aodiv@dividend+4)^0,f,c
  4755  0017D4  500E               	movf	(___aodiv@divisor+5)^0,w,c
  4756  0017D6  5A06               	subwfb	(___aodiv@dividend+5)^0,f,c
  4757  0017D8  500F               	movf	(___aodiv@divisor+6)^0,w,c
  4758  0017DA  5A07               	subwfb	(___aodiv@dividend+6)^0,f,c
  4759  0017DC  5010               	movf	(___aodiv@divisor+7)^0,w,c
  4760  0017DE  5A08               	subwfb	(___aodiv@dividend+7)^0,f,c
  4761  0017E0  8013               	bsf	___aodiv@quotient^0,0,c
  4762  0017E2                     i2l2066:
  4763  0017E2  90D8               	bcf	status,0,c
  4764  0017E4  3210               	rrcf	(___aodiv@divisor+7)^0,f,c
  4765  0017E6  320F               	rrcf	(___aodiv@divisor+6)^0,f,c
  4766  0017E8  320E               	rrcf	(___aodiv@divisor+5)^0,f,c
  4767  0017EA  320D               	rrcf	(___aodiv@divisor+4)^0,f,c
  4768  0017EC  320C               	rrcf	(___aodiv@divisor+3)^0,f,c
  4769  0017EE  320B               	rrcf	(___aodiv@divisor+2)^0,f,c
  4770  0017F0  320A               	rrcf	(___aodiv@divisor+1)^0,f,c
  4771  0017F2  3209               	rrcf	___aodiv@divisor^0,f,c
  4772  0017F4  2E11               	decfsz	___aodiv@counter^0,f,c
  4773  0017F6  EFC0  F00B         	goto	i2l2058
  4774  0017FA                     i2l2070:
  4775  0017FA  5012               	movf	___aodiv@sign^0,w,c
  4776  0017FC  B4D8               	btfsc	status,2,c
  4777  0017FE  EF03  F00C         	goto	i2u105_41
  4778  001802  EF05  F00C         	goto	i2u105_40
  4779  001806                     i2u105_41:
  4780  001806  EF15  F00C         	goto	i2l2074
  4781  00180A                     i2u105_40:
  4782  00180A  1E1A               	comf	(___aodiv@quotient+7)^0,f,c
  4783  00180C  1E19               	comf	(___aodiv@quotient+6)^0,f,c
  4784  00180E  1E18               	comf	(___aodiv@quotient+5)^0,f,c
  4785  001810  1E17               	comf	(___aodiv@quotient+4)^0,f,c
  4786  001812  1E16               	comf	(___aodiv@quotient+3)^0,f,c
  4787  001814  1E15               	comf	(___aodiv@quotient+2)^0,f,c
  4788  001816  1E14               	comf	(___aodiv@quotient+1)^0,f,c
  4789  001818  6C13               	negf	___aodiv@quotient^0,c
  4790  00181A  0E00               	movlw	0
  4791  00181C  2214               	addwfc	(___aodiv@quotient+1)^0,f,c
  4792  00181E  2215               	addwfc	(___aodiv@quotient+2)^0,f,c
  4793  001820  2216               	addwfc	(___aodiv@quotient+3)^0,f,c
  4794  001822  2217               	addwfc	(___aodiv@quotient+4)^0,f,c
  4795  001824  2218               	addwfc	(___aodiv@quotient+5)^0,f,c
  4796  001826  2219               	addwfc	(___aodiv@quotient+6)^0,f,c
  4797  001828  221A               	addwfc	(___aodiv@quotient+7)^0,f,c
  4798  00182A                     i2l2074:
  4799  00182A  C013  F001         	movff	___aodiv@quotient,?___aodiv
  4800  00182E  C014  F002         	movff	___aodiv@quotient+1,?___aodiv+1
  4801  001832  C015  F003         	movff	___aodiv@quotient+2,?___aodiv+2
  4802  001836  C016  F004         	movff	___aodiv@quotient+3,?___aodiv+3
  4803  00183A  C017  F005         	movff	___aodiv@quotient+4,?___aodiv+4
  4804  00183E  C018  F006         	movff	___aodiv@quotient+5,?___aodiv+5
  4805  001842  C019  F007         	movff	___aodiv@quotient+6,?___aodiv+6
  4806  001846  C01A  F008         	movff	___aodiv@quotient+7,?___aodiv+7
  4807  00184A  0012               	return		;funcret
  4808  00184C                     __end_of___aodiv:
  4809                           	opt callstack 0
  4810                           
  4811 ;; *************** function _LCDPutStr *****************
  4812 ;; Defined at:
  4813 ;;		line 156 in file "setup_LCD_2.c"
  4814 ;; Parameters:    Size  Location     Type
  4815 ;;  ptr             2    7[COMRAM] PTR const unsigned char 
  4816 ;;		 -> value(10), STR_3(10), defined_value_arr(3), STR_1(11), 
  4817 ;; Auto vars:     Size  Location     Type
  4818 ;;		None
  4819 ;; Return value:  Size  Location     Type
  4820 ;;                  1    wreg      void 
  4821 ;; Registers used:
  4822 ;;		wreg, fsr1l, fsr1h, status,2, status,0, tblptrl, tblptrh, tblptru, cstack
  4823 ;; Tracked objects:
  4824 ;;		On entry : 0/0
  4825 ;;		On exit  : 0/0
  4826 ;;		Unchanged: 0/0
  4827 ;; Data sizes:     COMRAM   BANK0   BANK1   BANK2   BANK3   BANK4   BANK5   BANK6   BANK7   BANK8   BANK9  BANK10  BANK1
      +1  BANK12  BANK13  BANK14  BANK15
  4828 ;;      Params:         2       0       0       0       0       0       0       0       0       0       0       0       
      +0       0       0       0       0
  4829 ;;      Locals:         0       0       0       0       0       0       0       0       0       0       0       0       
      +0       0       0       0       0
  4830 ;;      Temps:          0       0       0       0       0       0       0       0       0       0       0       0       
      +0       0       0       0       0
  4831 ;;      Totals:         2       0       0       0       0       0       0       0       0       0       0       0       
      +0       0       0       0       0
  4832 ;;Total ram usage:        2 bytes
  4833 ;; Hardware stack levels used:    1
  4834 ;; Hardware stack levels required when called:    3
  4835 ;; This function calls:
  4836 ;;		_LCDPutChar
  4837 ;; This function is called by:
  4838 ;;		_print_temp_state1
  4839 ;;		_print_hum_state2
  4840 ;;		_print_DHT11
  4841 ;; This function uses a non-reentrant model
  4842 ;;
  4843                           
  4844                           	psect	text37
  4845  001F8C                     __ptext37:
  4846                           	opt callstack 0
  4847  001F8C                     _LCDPutStr:
  4848                           	opt callstack 21
  4849  001F8C                     
  4850                           ;setup_LCD_2.c: 156: void LCDPutStr (const char *ptr);setup_LCD_2.c: 157: {;setup_LCD_2.
      +                          c: 158:     while(*ptr) LCDPutChar(*(ptr++));
  4851  001F8C  EFDD  F00F         	goto	i2l2362
  4852  001F90                     i2l2358:
  4853  001F90  C008  FFF6         	movff	LCDPutStr@ptr,tblptrl
  4854  001F94  C009  FFF7         	movff	LCDPutStr@ptr+1,tblptrh
  4855  001F98  0E00               	movlw	low (__smallconst shr (0+16))
  4856  001F9A  6EF8               	movwf	tblptru,c
  4857  001F9C  0E0F               	movlw	(high __ramtop+-1)
  4858  001F9E  64F7               	cpfsgt	tblptrh,c
  4859  001FA0  D003               	bra	i2u141_47
  4860  001FA2  0008               	tblrd		*
  4861  001FA4  50F5               	movf	tablat,w,c
  4862  001FA6  D005               	bra	i2u141_40
  4863  001FA8                     i2u141_47:
  4864  001FA8  CFF6 FFE1          	movff	tblptrl,fsr1l
  4865  001FAC  CFF7 FFE2          	movff	tblptrh,fsr1h
  4866  001FB0  50E7               	movf	indf1,w,c
  4867  001FB2                     i2u141_40:
  4868  001FB2  EC93  F00F         	call	_LCDPutChar
  4869  001FB6  4A08               	infsnz	LCDPutStr@ptr^0,f,c
  4870  001FB8  2A09               	incf	(LCDPutStr@ptr+1)^0,f,c
  4871  001FBA                     i2l2362:
  4872  001FBA  C008  FFF6         	movff	LCDPutStr@ptr,tblptrl
  4873  001FBE  C009  FFF7         	movff	LCDPutStr@ptr+1,tblptrh
  4874  001FC2  0E00               	movlw	low (__smallconst shr (0+16))
  4875  001FC4  6EF8               	movwf	tblptru,c
  4876  001FC6  0E0F               	movlw	(high __ramtop+-1)
  4877  001FC8  64F7               	cpfsgt	tblptrh,c
  4878  001FCA  D003               	bra	i2u142_47
  4879  001FCC  0008               	tblrd		*
  4880  001FCE  50F5               	movf	tablat,w,c
  4881  001FD0  D005               	bra	i2u142_40
  4882  001FD2                     i2u142_47:
  4883  001FD2  CFF6 FFE1          	movff	tblptrl,fsr1l
  4884  001FD6  CFF7 FFE2          	movff	tblptrh,fsr1h
  4885  001FDA  50E7               	movf	indf1,w,c
  4886  001FDC                     i2u142_40:
  4887  001FDC  0900               	iorlw	0
  4888  001FDE  A4D8               	btfss	status,2,c
  4889  001FE0  EFF4  F00F         	goto	i2u143_41
  4890  001FE4  EFF6  F00F         	goto	i2u143_40
  4891  001FE8                     i2u143_41:
  4892  001FE8  EFC8  F00F         	goto	i2l2358
  4893  001FEC                     i2u143_40:
  4894  001FEC  0012               	return		;funcret
  4895  001FEE                     __end_of_LCDPutStr:
  4896                           	opt callstack 0
  4897                           
  4898 ;; *************** function _LCDPutChar *****************
  4899 ;; Defined at:
  4900 ;;		line 118 in file "setup_LCD_2.c"
  4901 ;; Parameters:    Size  Location     Type
  4902 ;;  ch              1    wreg     unsigned char 
  4903 ;; Auto vars:     Size  Location     Type
  4904 ;;  ch              1    6[COMRAM] unsigned char 
  4905 ;; Return value:  Size  Location     Type
  4906 ;;                  1    wreg      void 
  4907 ;; Registers used:
  4908 ;;		wreg, status,2, status,0, cstack
  4909 ;; Tracked objects:
  4910 ;;		On entry : 0/0
  4911 ;;		On exit  : 0/0
  4912 ;;		Unchanged: 0/0
  4913 ;; Data sizes:     COMRAM   BANK0   BANK1   BANK2   BANK3   BANK4   BANK5   BANK6   BANK7   BANK8   BANK9  BANK10  BANK1
      +1  BANK12  BANK13  BANK14  BANK15
  4914 ;;      Params:         0       0       0       0       0       0       0       0       0       0       0       0       
      +0       0       0       0       0
  4915 ;;      Locals:         1       0       0       0       0       0       0       0       0       0       0       0       
      +0       0       0       0       0
  4916 ;;      Temps:          1       0       0       0       0       0       0       0       0       0       0       0       
      +0       0       0       0       0
  4917 ;;      Totals:         2       0       0       0       0       0       0       0       0       0       0       0       
      +0       0       0       0       0
  4918 ;;Total ram usage:        2 bytes
  4919 ;; Hardware stack levels used:    1
  4920 ;; Hardware stack levels required when called:    2
  4921 ;; This function calls:
  4922 ;;		i2_WritePort_BBSPI
  4923 ;; This function is called by:
  4924 ;;		_LCDPutStr
  4925 ;;		_print_DHT11
  4926 ;; This function uses a non-reentrant model
  4927 ;;
  4928                           
  4929                           	psect	text38
  4930  001F26                     __ptext38:
  4931                           	opt callstack 0
  4932  001F26                     _LCDPutChar:
  4933                           	opt callstack 21
  4934                           
  4935                           ;incstack = 0
  4936                           ;LCDPutChar@ch stored from wreg
  4937  001F26  6E07               	movwf	LCDPutChar@ch^0,c
  4938  001F28                     
  4939                           ;setup_LCD_2.c: 118: void LCDPutChar (unsigned char ch);setup_LCD_2.c: 119: {;setup_LCD_
      +                          2.c: 120:     _delay((unsigned long)((5)*(10000000/4000.0)));
  4940  001F28  0E11               	movlw	17
  4941  001F2A  6E06               	movwf	??_LCDPutChar^0,c
  4942  001F2C  0E3A               	movlw	58
  4943  001F2E                     i2u188_47:
  4944  001F2E  2EE8               	decfsz	wreg,f,c
  4945  001F30  D7FE               	bra	i2u188_47
  4946  001F32  2E06               	decfsz	??_LCDPutChar^0,f,c
  4947  001F34  D7FC               	bra	i2u188_47
  4948  001F36  D000               	nop2	
  4949  001F38                     
  4950                           ;setup_LCD_2.c: 121:     WritePort_BBSPI (0x12, 0x80);
  4951  001F38  0E80               	movlw	128
  4952  001F3A  6E04               	movwf	i2WritePort_BBSPI@a^0,c
  4953  001F3C  0E12               	movlw	18
  4954  001F3E  EC0A  F012         	call	i2_WritePort_BBSPI
  4955  001F42                     
  4956                           ;setup_LCD_2.c: 122:     _delay((unsigned long)((1)*(10000000/4000.0)));
  4957  001F42  0E04               	movlw	4
  4958  001F44  6E06               	movwf	??_LCDPutChar^0,c
  4959  001F46  0E3E               	movlw	62
  4960  001F48                     i2u189_47:
  4961  001F48  2EE8               	decfsz	wreg,f,c
  4962  001F4A  D7FE               	bra	i2u189_47
  4963  001F4C  2E06               	decfsz	??_LCDPutChar^0,f,c
  4964  001F4E  D7FC               	bra	i2u189_47
  4965  001F50                     
  4966                           ;setup_LCD_2.c: 123:     WritePort_BBSPI (0x13, ch);
  4967  001F50  C007  F004         	movff	LCDPutChar@ch,i2WritePort_BBSPI@a
  4968  001F54  0E13               	movlw	19
  4969  001F56  EC0A  F012         	call	i2_WritePort_BBSPI
  4970  001F5A                     
  4971                           ;setup_LCD_2.c: 124:     _delay((unsigned long)((1)*(10000000/4000.0)));
  4972  001F5A  0E04               	movlw	4
  4973  001F5C  6E06               	movwf	??_LCDPutChar^0,c
  4974  001F5E  0E3E               	movlw	62
  4975  001F60                     i2u190_47:
  4976  001F60  2EE8               	decfsz	wreg,f,c
  4977  001F62  D7FE               	bra	i2u190_47
  4978  001F64  2E06               	decfsz	??_LCDPutChar^0,f,c
  4979  001F66  D7FC               	bra	i2u190_47
  4980  001F68                     
  4981                           ;setup_LCD_2.c: 125:     WritePort_BBSPI (0x12, 0xC0);
  4982  001F68  0EC0               	movlw	192
  4983  001F6A  6E04               	movwf	i2WritePort_BBSPI@a^0,c
  4984  001F6C  0E12               	movlw	18
  4985  001F6E  EC0A  F012         	call	i2_WritePort_BBSPI
  4986  001F72                     
  4987                           ;setup_LCD_2.c: 126:     _delay((unsigned long)((1)*(10000000/4000.0)));
  4988  001F72  0E04               	movlw	4
  4989  001F74  6E06               	movwf	??_LCDPutChar^0,c
  4990  001F76  0E3E               	movlw	62
  4991  001F78                     i2u191_47:
  4992  001F78  2EE8               	decfsz	wreg,f,c
  4993  001F7A  D7FE               	bra	i2u191_47
  4994  001F7C  2E06               	decfsz	??_LCDPutChar^0,f,c
  4995  001F7E  D7FC               	bra	i2u191_47
  4996  001F80                     
  4997                           ;setup_LCD_2.c: 127:     WritePort_BBSPI (0x12, 0x00);
  4998  001F80  0E00               	movlw	0
  4999  001F82  6E04               	movwf	i2WritePort_BBSPI@a^0,c
  5000  001F84  0E12               	movlw	18
  5001  001F86  EC0A  F012         	call	i2_WritePort_BBSPI
  5002  001F8A  0012               	return		;funcret
  5003  001F8C                     __end_of_LCDPutChar:
  5004                           	opt callstack 0
  5005                           
  5006 ;; *************** function i2_WritePort_BBSPI *****************
  5007 ;; Defined at:
  5008 ;;		line 102 in file "setup_LCD_2.c"
  5009 ;; Parameters:    Size  Location     Type
  5010 ;;  port_add        1    wreg     unsigned char 
  5011 ;;  a               1    3[COMRAM] unsigned char 
  5012 ;; Auto vars:     Size  Location     Type
  5013 ;;  port_add        1    4[COMRAM] unsigned char 
  5014 ;; Return value:  Size  Location     Type
  5015 ;;                  1    wreg      void 
  5016 ;; Registers used:
  5017 ;;		wreg, status,2, status,0, cstack
  5018 ;; Tracked objects:
  5019 ;;		On entry : 0/0
  5020 ;;		On exit  : 0/0
  5021 ;;		Unchanged: 0/0
  5022 ;; Data sizes:     COMRAM   BANK0   BANK1   BANK2   BANK3   BANK4   BANK5   BANK6   BANK7   BANK8   BANK9  BANK10  BANK1
      +1  BANK12  BANK13  BANK14  BANK15
  5023 ;;      Params:         1       0       0       0       0       0       0       0       0       0       0       0       
      +0       0       0       0       0
  5024 ;;      Locals:         1       0       0       0       0       0       0       0       0       0       0       0       
      +0       0       0       0       0
  5025 ;;      Temps:          0       0       0       0       0       0       0       0       0       0       0       0       
      +0       0       0       0       0
  5026 ;;      Totals:         2       0       0       0       0       0       0       0       0       0       0       0       
      +0       0       0       0       0
  5027 ;;Total ram usage:        2 bytes
  5028 ;; Hardware stack levels used:    1
  5029 ;; Hardware stack levels required when called:    1
  5030 ;; This function calls:
  5031 ;;		i2_SendByteBBSPI
  5032 ;; This function is called by:
  5033 ;;		_LCDPutChar
  5034 ;;		i2_LCDPutInst
  5035 ;; This function uses a non-reentrant model
  5036 ;;
  5037                           
  5038                           	psect	text39
  5039  002414                     __ptext39:
  5040                           	opt callstack 0
  5041  002414                     i2_WritePort_BBSPI:
  5042                           	opt callstack 22
  5043                           
  5044                           ;incstack = 0
  5045                           ;i2WritePort_BBSPI@port_add stored from wreg
  5046  002414  6E05               	movwf	i2WritePort_BBSPI@port_add^0,c
  5047  002416                     
  5048                           ;setup_LCD_2.c: 102: void WritePort_BBSPI (unsigned char port_add, unsigned char a);setu
      +                          p_LCD_2.c: 103: {;setup_LCD_2.c: 104:     LATAbits.LATA2 = 0;
  5049  002416  9489               	bcf	137,2,c	;volatile
  5050  002418                     
  5051                           ;setup_LCD_2.c: 105:     SendByteBBSPI(0x40);
  5052  002418  0E40               	movlw	64
  5053  00241A  EC8F  F00E         	call	i2_SendByteBBSPI
  5054                           
  5055                           ;setup_LCD_2.c: 106:     SendByteBBSPI(port_add);
  5056  00241E  5005               	movf	i2WritePort_BBSPI@port_add^0,w,c
  5057  002420  EC8F  F00E         	call	i2_SendByteBBSPI
  5058                           
  5059                           ;setup_LCD_2.c: 107:     SendByteBBSPI(a);
  5060  002424  5004               	movf	i2WritePort_BBSPI@a^0,w,c
  5061  002426  EC8F  F00E         	call	i2_SendByteBBSPI
  5062  00242A                     
  5063                           ;setup_LCD_2.c: 108:     LATAbits.LATA2 = 1;
  5064  00242A  8489               	bsf	137,2,c	;volatile
  5065  00242C  0012               	return		;funcret
  5066  00242E                     __end_ofi2_WritePort_BBSPI:
  5067                           	opt callstack 0
  5068                           
  5069 ;; *************** function i2_SendByteBBSPI *****************
  5070 ;; Defined at:
  5071 ;;		line 49 in file "setup_LCD_2.c"
  5072 ;; Parameters:    Size  Location     Type
  5073 ;;  output          1    wreg     unsigned char 
  5074 ;; Auto vars:     Size  Location     Type
  5075 ;;  output          1    0[COMRAM] unsigned char 
  5076 ;;  SendByteBBSP    1    2[COMRAM] unsigned char 
  5077 ;;  SendByteBBSP    1    1[COMRAM] unsigned char 
  5078 ;; Return value:  Size  Location     Type
  5079 ;;                  1    wreg      void 
  5080 ;; Registers used:
  5081 ;;		wreg, status,2, status,0
  5082 ;; Tracked objects:
  5083 ;;		On entry : 0/0
  5084 ;;		On exit  : 0/0
  5085 ;;		Unchanged: 0/0
  5086 ;; Data sizes:     COMRAM   BANK0   BANK1   BANK2   BANK3   BANK4   BANK5   BANK6   BANK7   BANK8   BANK9  BANK10  BANK1
      +1  BANK12  BANK13  BANK14  BANK15
  5087 ;;      Params:         0       0       0       0       0       0       0       0       0       0       0       0       
      +0       0       0       0       0
  5088 ;;      Locals:         3       0       0       0       0       0       0       0       0       0       0       0       
      +0       0       0       0       0
  5089 ;;      Temps:          0       0       0       0       0       0       0       0       0       0       0       0       
      +0       0       0       0       0
  5090 ;;      Totals:         3       0       0       0       0       0       0       0       0       0       0       0       
      +0       0       0       0       0
  5091 ;;Total ram usage:        3 bytes
  5092 ;; Hardware stack levels used:    1
  5093 ;; This function calls:
  5094 ;;		Nothing
  5095 ;; This function is called by:
  5096 ;;		i2_WritePort_BBSPI
  5097 ;; This function uses a non-reentrant model
  5098 ;;
  5099                           
  5100                           	psect	text40
  5101  001D1E                     __ptext40:
  5102                           	opt callstack 0
  5103  001D1E                     i2_SendByteBBSPI:
  5104                           	opt callstack 22
  5105                           
  5106                           ;incstack = 0
  5107                           ;i2SendByteBBSPI@output stored from wreg
  5108  001D1E  6E01               	movwf	i2SendByteBBSPI@output^0,c
  5109  001D20                     
  5110                           ;setup_LCD_2.c: 49: void SendByteBBSPI (unsigned char output);setup_LCD_2.c: 50: {;setup
      +                          _LCD_2.c: 51:     unsigned char bitcount;;setup_LCD_2.c: 52:     unsigned char input = o
      +                          utput;
  5111  001D20  C001  F003         	movff	i2SendByteBBSPI@output,i2SendByteBBSPI@input
  5112  001D24                     
  5113                           ;setup_LCD_2.c: 54:     for(bitcount=0;bitcount<8;bitcount++)
  5114  001D24  0E00               	movlw	0
  5115  001D26  6E02               	movwf	i2SendByteBBSPI@bitcount^0,c
  5116  001D28                     i2l328:
  5117                           
  5118                           ;setup_LCD_2.c: 55:     {;setup_LCD_2.c: 57:         if(output & 0x80)
  5119  001D28  AE01               	btfss	i2SendByteBBSPI@output^0,7,c
  5120  001D2A  EF99  F00E         	goto	i2u127_41
  5121  001D2E  EF9B  F00E         	goto	i2u127_40
  5122  001D32                     i2u127_41:
  5123  001D32  EF9E  F00E         	goto	i2l330
  5124  001D36                     i2u127_40:
  5125  001D36                     
  5126                           ;setup_LCD_2.c: 58:             LATCbits.LATC5 = 1;
  5127  001D36  8A8B               	bsf	139,5,c	;volatile
  5128  001D38  EF9F  F00E         	goto	i2l331
  5129  001D3C                     i2l330:
  5130                           
  5131                           ;setup_LCD_2.c: 60:             LATCbits.LATC5 = 0;
  5132  001D3C  9A8B               	bcf	139,5,c	;volatile
  5133  001D3E                     i2l331:
  5134                           
  5135                           ;setup_LCD_2.c: 62:         if (LATCbits.LATC4)
  5136  001D3E  A88B               	btfss	139,4,c	;volatile
  5137  001D40  EFA4  F00E         	goto	i2u128_41
  5138  001D44  EFA6  F00E         	goto	i2u128_40
  5139  001D48                     i2u128_41:
  5140  001D48  EFAA  F00E         	goto	i2l2188
  5141  001D4C                     i2u128_40:
  5142  001D4C                     
  5143                           ;setup_LCD_2.c: 63:             input = (input << 1) | 0x1;
  5144  001D4C  80D8               	bsf	status,0,c
  5145  001D4E  3603               	rlcf	i2SendByteBBSPI@input^0,f,c
  5146  001D50  EFAD  F00E         	goto	i2l2190
  5147  001D54                     i2l2188:
  5148                           
  5149                           ;setup_LCD_2.c: 65:             input = input << 1;
  5150  001D54  5003               	movf	i2SendByteBBSPI@input^0,w,c
  5151  001D56  2403               	addwf	i2SendByteBBSPI@input^0,w,c
  5152  001D58  6E03               	movwf	i2SendByteBBSPI@input^0,c
  5153  001D5A                     i2l2190:
  5154                           
  5155                           ;setup_LCD_2.c: 66:         LATCbits.LATC3 = 1;
  5156  001D5A  868B               	bsf	139,3,c	;volatile
  5157  001D5C                     
  5158                           ;setup_LCD_2.c: 67:         __nop();__nop();__nop();__nop();__nop();__nop();
  5159  001D5C  F000               	nop	
  5160  001D5E  F000               	nop	
  5161  001D60  F000               	nop	
  5162  001D62  F000               	nop	
  5163  001D64  F000               	nop	
  5164  001D66  F000               	nop	
  5165  001D68                     
  5166                           ;setup_LCD_2.c: 68:         __nop();__nop();__nop();__nop();__nop();__nop();
  5167  001D68  F000               	nop	
  5168  001D6A  F000               	nop	
  5169  001D6C  F000               	nop	
  5170  001D6E  F000               	nop	
  5171  001D70  F000               	nop	
  5172  001D72  F000               	nop	
  5173  001D74                     
  5174                           ;setup_LCD_2.c: 69:         LATCbits.LATC3 = 0;
  5175  001D74  968B               	bcf	139,3,c	;volatile
  5176                           
  5177                           ;setup_LCD_2.c: 70:         output <<= 1;
  5178  001D76  90D8               	bcf	status,0,c
  5179  001D78  3601               	rlcf	i2SendByteBBSPI@output^0,f,c
  5180  001D7A                     
  5181                           ;setup_LCD_2.c: 71:     }
  5182  001D7A  2A02               	incf	i2SendByteBBSPI@bitcount^0,f,c
  5183  001D7C  0E07               	movlw	7
  5184  001D7E  6402               	cpfsgt	i2SendByteBBSPI@bitcount^0,c
  5185  001D80  EFC4  F00E         	goto	i2u129_41
  5186  001D84  EFC6  F00E         	goto	i2u129_40
  5187  001D88                     i2u129_41:
  5188  001D88  EF94  F00E         	goto	i2l328
  5189  001D8C                     i2u129_40:
  5190  001D8C  0012               	return		;funcret
  5191  001D8E                     __end_ofi2_SendByteBBSPI:
  5192                           	opt callstack 0
  5193                           
  5194 ;; *************** function _check_but_RB0 *****************
  5195 ;; Defined at:
  5196 ;;		line 3 in file "solution01.c"
  5197 ;; Parameters:    Size  Location     Type
  5198 ;;		None
  5199 ;; Auto vars:     Size  Location     Type
  5200 ;;		None
  5201 ;; Return value:  Size  Location     Type
  5202 ;;                  2    0[COMRAM] int 
  5203 ;; Registers used:
  5204 ;;		wreg, status,2
  5205 ;; Tracked objects:
  5206 ;;		On entry : 0/0
  5207 ;;		On exit  : 0/0
  5208 ;;		Unchanged: 0/0
  5209 ;; Data sizes:     COMRAM   BANK0   BANK1   BANK2   BANK3   BANK4   BANK5   BANK6   BANK7   BANK8   BANK9  BANK10  BANK1
      +1  BANK12  BANK13  BANK14  BANK15
  5210 ;;      Params:         2       0       0       0       0       0       0       0       0       0       0       0       
      +0       0       0       0       0
  5211 ;;      Locals:         0       0       0       0       0       0       0       0       0       0       0       0       
      +0       0       0       0       0
  5212 ;;      Temps:          0       0       0       0       0       0       0       0       0       0       0       0       
      +0       0       0       0       0
  5213 ;;      Totals:         2       0       0       0       0       0       0       0       0       0       0       0       
      +0       0       0       0       0
  5214 ;;Total ram usage:        2 bytes
  5215 ;; Hardware stack levels used:    1
  5216 ;; This function calls:
  5217 ;;		Nothing
  5218 ;; This function is called by:
  5219 ;;		_FSM
  5220 ;; This function uses a non-reentrant model
  5221 ;;
  5222                           
  5223                           	psect	text41
  5224  0020A4                     __ptext41:
  5225                           	opt callstack 0
  5226  0020A4                     _check_but_RB0:
  5227                           	opt callstack 24
  5228  0020A4                     
  5229                           ;solution01.c: 4:     if (PORTBbits.RB0 != 0){
  5230  0020A4  A081               	btfss	129,0,c	;volatile
  5231  0020A6  EF57  F010         	goto	i2u144_41
  5232  0020AA  EF59  F010         	goto	i2u144_40
  5233  0020AE                     i2u144_41:
  5234  0020AE  EF62  F010         	goto	i2l212
  5235  0020B2                     i2u144_40:
  5236  0020B2                     
  5237                           ;solution01.c: 5:         flag_RB0 = 0;
  5238  0020B2  0E00               	movlw	0
  5239  0020B4  0100               	movlb	0	; () banked
  5240  0020B6  6F79               	movwf	_flag_RB0& (0+255),b
  5241                           
  5242                           ;solution01.c: 6:         return 0;
  5243  0020B8  0E00               	movlw	0
  5244  0020BA  6E02               	movwf	(?_check_but_RB0+1)^0,c
  5245  0020BC  0E00               	movlw	0
  5246  0020BE  6E01               	movwf	?_check_but_RB0^0,c
  5247  0020C0  EF7E  F010         	goto	i2l213
  5248  0020C4                     i2l212:
  5249                           
  5250                           ;solution01.c: 8:     if ((PORTBbits.RB0 == 0) && (flag_RB0 == 0)){
  5251  0020C4  B081               	btfsc	129,0,c	;volatile
  5252  0020C6  EF67  F010         	goto	i2u145_41
  5253  0020CA  EF69  F010         	goto	i2u145_40
  5254  0020CE                     i2u145_41:
  5255  0020CE  EF7A  F010         	goto	i2l2430
  5256  0020D2                     i2u145_40:
  5257  0020D2  0100               	movlb	0	; () banked
  5258  0020D4  5179               	movf	_flag_RB0& (0+255),w,b
  5259  0020D6  A4D8               	btfss	status,2,c
  5260  0020D8  EF70  F010         	goto	i2u146_41
  5261  0020DC  EF72  F010         	goto	i2u146_40
  5262  0020E0                     i2u146_41:
  5263  0020E0  EF7A  F010         	goto	i2l2430
  5264  0020E4                     i2u146_40:
  5265  0020E4                     
  5266                           ; BSR set to: 0
  5267                           ;solution01.c: 9:         flag_RB0 = 1;
  5268  0020E4  0E01               	movlw	1
  5269  0020E6  6F79               	movwf	_flag_RB0& (0+255),b
  5270                           
  5271                           ;solution01.c: 10:         return 1;
  5272  0020E8  0E00               	movlw	0
  5273  0020EA  6E02               	movwf	(?_check_but_RB0+1)^0,c
  5274  0020EC  0E01               	movlw	1
  5275  0020EE  6E01               	movwf	?_check_but_RB0^0,c
  5276  0020F0  EF7E  F010         	goto	i2l213
  5277  0020F4                     i2l2430:
  5278                           
  5279                           ;solution01.c: 12:     return 0;
  5280  0020F4  0E00               	movlw	0
  5281  0020F6  6E02               	movwf	(?_check_but_RB0+1)^0,c
  5282  0020F8  0E00               	movlw	0
  5283  0020FA  6E01               	movwf	?_check_but_RB0^0,c
  5284  0020FC                     i2l213:
  5285  0020FC  0012               	return		;funcret
  5286  0020FE                     __end_of_check_but_RB0:
  5287                           	opt callstack 0
  5288                           
  5289                           	psect	rparam
  5290  0000                     
  5291                           	psect	temp
  5292  00005F                     btemp:
  5293                           	opt callstack 0
  5294  00005F                     	ds	1
  5295  0000                     int$flags	set	btemp
  5296  0000                     wtemp8	set	btemp+1
  5297  0000                     ttemp5	set	btemp+1
  5298  0000                     ttemp6	set	btemp+4
  5299  0000                     ttemp7	set	btemp+8
  5300                           tosu	equ	0xFFF
  5301                           tosh	equ	0xFFE
  5302                           tosl	equ	0xFFD
  5303                           stkptr	equ	0xFFC
  5304                           pclatu	equ	0xFFB
  5305                           pclath	equ	0xFFA
  5306                           pcl	equ	0xFF9
  5307                           tblptru	equ	0xFF8
  5308                           tblptrh	equ	0xFF7
  5309                           tblptrl	equ	0xFF6
  5310                           tablat	equ	0xFF5
  5311                           prodh	equ	0xFF4
  5312                           prodl	equ	0xFF3
  5313                           indf0	equ	0xFEF
  5314                           postinc0	equ	0xFEE
  5315                           postdec0	equ	0xFED
  5316                           preinc0	equ	0xFEC
  5317                           plusw0	equ	0xFEB
  5318                           fsr0h	equ	0xFEA
  5319                           fsr0l	equ	0xFE9
  5320                           wreg	equ	0xFE8
  5321                           indf1	equ	0xFE7
  5322                           postinc1	equ	0xFE6
  5323                           postdec1	equ	0xFE5
  5324                           preinc1	equ	0xFE4
  5325                           plusw1	equ	0xFE3
  5326                           fsr1h	equ	0xFE2
  5327                           fsr1l	equ	0xFE1
  5328                           bsr	equ	0xFE0
  5329                           indf2	equ	0xFDF
  5330                           postinc2	equ	0xFDE
  5331                           postdec2	equ	0xFDD
  5332                           preinc2	equ	0xFDC
  5333                           plusw2	equ	0xFDB
  5334                           fsr2h	equ	0xFDA
  5335                           fsr2l	equ	0xFD9
  5336                           status	equ	0xFD8


Data Sizes:
    Strings     24
    Constant    0
    Data        4
    BSS         72
    Persistent  2
    Stack       0

Auto Spaces:
    Space          Size  Autos    Used
    COMRAM           94     93      94
    BANK0           160     28     105
    BANK1           256      0       0
    BANK2           256      0       0
    BANK3           256      0       0
    BANK4           256      0       0
    BANK5           256      0       0
    BANK6           256      0       0
    BANK7           256      0       0
    BANK8           256      0       0
    BANK9           256      0       0
    BANK10          256      0       0
    BANK11          256      0       0
    BANK12          256      0       0
    BANK13          256      0       0
    BANK14          256      0       0
    BANK15           96      0       0

Pointer List with Targets:

    strlen@s	PTR const unsigned char  size(2) Largest target is 32
		 -> dbuf(BANK0[32]), 

    strlen@a	PTR const unsigned char  size(2) Largest target is 32
		 -> dbuf(BANK0[32]), 

    sprintf@fmt	PTR const unsigned char  size(2) Largest target is 3
		 -> STR_6(CODE[3]), STR_5(CODE[3]), STR_4(CODE[3]), STR_2(CODE[3]), 

    sprintf@s	PTR unsigned char  size(2) Largest target is 10
		 -> value(BANK0[10]), defined_value_arr(BANK0[3]), 

    sprintf@ap	PTR void [1] size(2) Largest target is 2
		 -> ?_sprintf(COMRAM[2]), 

    f.buffer	PTR unsigned char  size(2) Largest target is 10
		 -> value(BANK0[10]), defined_value_arr(BANK0[3]), 

    fputs@s	PTR const unsigned char  size(2) Largest target is 32
		 -> dbuf(BANK0[32]), 

    fputs@fp	PTR struct _IO_FILE size(2) Largest target is 7
		 -> sprintf@f(BANK0[6]), 

    S1731_IO_FILE$buffer	PTR unsigned char  size(2) Largest target is 10
		 -> value(BANK0[10]), defined_value_arr(BANK0[3]), 

    fputc@fp.buffer	PTR unsigned char  size(2) Largest target is 10
		 -> value(BANK0[10]), defined_value_arr(BANK0[3]), 

    fputc@fp	PTR struct _IO_FILE size(2) Largest target is 7
		 -> sprintf@f(BANK0[6]), 

    vfprintf@ap	PTR PTR void  size(2) Largest target is 2
		 -> sprintf@ap(BANK0[2]), 

    vfprintf@fp	PTR struct _IO_FILE size(2) Largest target is 7
		 -> sprintf@f(BANK0[6]), 

    vfprintf@fmt	PTR const unsigned char  size(2) Largest target is 3
		 -> STR_6(CODE[3]), STR_5(CODE[3]), STR_4(CODE[3]), STR_2(CODE[3]), 

    vfprintf@cfmt	PTR unsigned char  size(2) Largest target is 3
		 -> STR_6(CODE[3]), STR_5(CODE[3]), STR_4(CODE[3]), STR_2(CODE[3]), 

    vfpfcnvrt@fp	PTR struct _IO_FILE size(2) Largest target is 7
		 -> sprintf@f(BANK0[6]), 

    vfpfcnvrt@ap	PTR PTR void  size(2) Largest target is 2
		 -> sprintf@ap(BANK0[2]), 

    vfpfcnvrt@fmt	PTR PTR unsigned char  size(2) Largest target is 2
		 -> vfprintf@cfmt(COMRAM[2]), 

    dtoa@fp	PTR struct _IO_FILE size(2) Largest target is 7
		 -> sprintf@f(BANK0[6]), 

    pad@fp	PTR struct _IO_FILE size(2) Largest target is 7
		 -> sprintf@f(BANK0[6]), 

    pad@buf	PTR unsigned char  size(2) Largest target is 32
		 -> dbuf(BANK0[32]), 

    LCDPutStr@ptr	PTR const unsigned char  size(2) Largest target is 11
		 -> value(BANK0[10]), STR_3(CODE[10]), defined_value_arr(BANK0[3]), STR_1(CODE[11]), 


Critical Paths under _main in COMRAM

    None.

Critical Paths under _function_interrupt_TMR0 in COMRAM

    _print_DHT11->_sprintf
    _operate_DHT11->_DHT11_ReadData
    _set_defined_temp->_check_but_RA5
    _set_defined_hum->_check_but_RA5
    _print_temp_state1->_sprintf
    _print_hum_state2->_sprintf
    i2_LCDPutInst->i2_WritePort_BBSPI
    _sprintf->_vfprintf
    _vfprintf->_vfpfcnvrt
    _vfpfcnvrt->_dtoa
    _dtoa->_pad
    _pad->_fputs
    _fputs->_fputc
    _abs->___aomod
    _LCDPutStr->_LCDPutChar
    _LCDPutChar->i2_WritePort_BBSPI
    i2_WritePort_BBSPI->i2_SendByteBBSPI

Critical Paths under _main in BANK0

    _main->_LCDInit
    _LCDInit->_LCDPutInst
    _Port_BBSPIInit->_SendByteBBSPI
    _LCDPutInst->_WritePort_BBSPI
    _WritePort_BBSPI->_SendByteBBSPI

Critical Paths under _function_interrupt_TMR0 in BANK0

    _function_interrupt_TMR0->_FSM
    _print_DHT11->_sprintf
    _print_temp_state1->_sprintf
    _print_hum_state2->_sprintf

Critical Paths under _main in BANK1

    None.

Critical Paths under _function_interrupt_TMR0 in BANK1

    None.

Critical Paths under _main in BANK2

    None.

Critical Paths under _function_interrupt_TMR0 in BANK2

    None.

Critical Paths under _main in BANK3

    None.

Critical Paths under _function_interrupt_TMR0 in BANK3

    None.

Critical Paths under _main in BANK4

    None.

Critical Paths under _function_interrupt_TMR0 in BANK4

    None.

Critical Paths under _main in BANK5

    None.

Critical Paths under _function_interrupt_TMR0 in BANK5

    None.

Critical Paths under _main in BANK6

    None.

Critical Paths under _function_interrupt_TMR0 in BANK6

    None.

Critical Paths under _main in BANK7

    None.

Critical Paths under _function_interrupt_TMR0 in BANK7

    None.

Critical Paths under _main in BANK8

    None.

Critical Paths under _function_interrupt_TMR0 in BANK8

    None.

Critical Paths under _main in BANK9

    None.

Critical Paths under _function_interrupt_TMR0 in BANK9

    None.

Critical Paths under _main in BANK10

    None.

Critical Paths under _function_interrupt_TMR0 in BANK10

    None.

Critical Paths under _main in BANK11

    None.

Critical Paths under _function_interrupt_TMR0 in BANK11

    None.

Critical Paths under _main in BANK12

    None.

Critical Paths under _function_interrupt_TMR0 in BANK12

    None.

Critical Paths under _main in BANK13

    None.

Critical Paths under _function_interrupt_TMR0 in BANK13

    None.

Critical Paths under _main in BANK14

    None.

Critical Paths under _function_interrupt_TMR0 in BANK14

    None.

Critical Paths under _main in BANK15

    None.

Critical Paths under _function_interrupt_TMR0 in BANK15

    None.

Call Graph Tables:

 ---------------------------------------------------------------------------------
 (Depth) Function   	        Calls       Base Space   Used Autos Params    Refs
 ---------------------------------------------------------------------------------
 (0) _main                                                 0     0      0    1706
                            _LCDInit
                  _system_initialize
 ---------------------------------------------------------------------------------
 (1) _system_initialize                                    0     0      0       0
               _interrupt_initialize
              _oscillator_initialize
                        _pin_manager
                 _timer_0_initialize
 ---------------------------------------------------------------------------------
 (2) _timer_0_initialize                                   0     0      0       0
 ---------------------------------------------------------------------------------
 (2) _pin_manager                                          0     0      0       0
 ---------------------------------------------------------------------------------
 (2) _oscillator_initialize                                0     0      0       0
 ---------------------------------------------------------------------------------
 (2) _interrupt_initialize                                 0     0      0       0
 ---------------------------------------------------------------------------------
 (1) _LCDInit                                              1     1      0    1706
                                             27 BANK0      1     1      0
                          _InitBBSPI
                         _LCDPutInst
                     _Port_BBSPIInit
                    _WritePort_BBSPI
 ---------------------------------------------------------------------------------
 (2) _Port_BBSPIInit                                       1     1      0     160
                                             23 BANK0      1     1      0
                      _SendByteBBSPI
 ---------------------------------------------------------------------------------
 (2) _LCDPutInst                                           2     2      0     784
                                             25 BANK0      2     2      0
                    _WritePort_BBSPI
 ---------------------------------------------------------------------------------
 (2) _WritePort_BBSPI                                      2     1      1     762
                                             23 BANK0      2     1      1
                      _SendByteBBSPI
 ---------------------------------------------------------------------------------
 (3) _SendByteBBSPI                                        3     3      0     138
                                             20 BANK0      3     3      0
 ---------------------------------------------------------------------------------
 (2) _InitBBSPI                                            0     0      0       0
 ---------------------------------------------------------------------------------
 Estimated maximum stack depth 3
 ---------------------------------------------------------------------------------
 (Depth) Function   	        Calls       Base Space   Used Autos Params    Refs
 ---------------------------------------------------------------------------------
 (5) _function_interrupt_TMR0                              8     8      0   25650
                                             12 BANK0      8     8      0
                                _FSM
                      _operate_DHT11
                        _print_DHT11
 ---------------------------------------------------------------------------------
 (6) _print_DHT11                                          0     0      0    8649
                         _LCDPutChar
                          _LCDPutStr
                            _sprintf
                       i2_LCDPutInst
 ---------------------------------------------------------------------------------
 (6) _operate_DHT11                                        0     0      0     115
                _DHT11_CheckResponse
                     _DHT11_ReadData
                        _DHT11_Start
 ---------------------------------------------------------------------------------
 (7) _DHT11_Start                                          1     1      0       0
                                              0 COMRAM     1     1      0
 ---------------------------------------------------------------------------------
 (7) _DHT11_ReadData                                       2     2      0     115
                                              0 COMRAM     2     2      0
 ---------------------------------------------------------------------------------
 (7) _DHT11_CheckResponse                                  0     0      0       0
 ---------------------------------------------------------------------------------
 (6) _FSM                                                  2     2      0   16886
                                             10 BANK0      2     2      0
                      _check_but_RB0
                   _print_hum_state2
                  _print_temp_state1
                    _set_defined_hum
                   _set_defined_temp
                       i2_LCDPutInst
 ---------------------------------------------------------------------------------
 (7) _set_defined_temp                                     0     0      0       0
                      _check_but_RA5
 ---------------------------------------------------------------------------------
 (7) _set_defined_hum                                      0     0      0       0
                      _check_but_RA5
 ---------------------------------------------------------------------------------
 (8) _check_but_RA5                                        2     0      2       0
                                              0 COMRAM     2     0      2
 ---------------------------------------------------------------------------------
 (7) _print_temp_state1                                    0     0      0    8237
                          _LCDPutStr
                            _sprintf
                       i2_LCDPutInst
 ---------------------------------------------------------------------------------
 (7) _print_hum_state2                                     0     0      0    8237
                          _LCDPutStr
                            _sprintf
                       i2_LCDPutInst
 ---------------------------------------------------------------------------------
 (7) i2_LCDPutInst                                         2     2      0     412
                                              5 COMRAM     2     2      0
                  i2_WritePort_BBSPI
 ---------------------------------------------------------------------------------
 (7) _sprintf                                             16    10      6    6912
                                             87 COMRAM     6     0      6
                                              0 BANK0     10    10      0
                           _vfprintf
 ---------------------------------------------------------------------------------
 (8) _vfprintf                                             8     2      6    6105
                                             79 COMRAM     8     2      6
                          _vfpfcnvrt
 ---------------------------------------------------------------------------------
 (9) _vfpfcnvrt                                           42    36      6    5751
                                             63 COMRAM    16    10      6
                               _dtoa
                              _fputc
 ---------------------------------------------------------------------------------
 (10) _dtoa                                               36    26     10    4358
                                             27 COMRAM    36    26     10
                            ___aodiv
                            ___aomod
                                _abs
                                _pad
 ---------------------------------------------------------------------------------
 (11) _pad                                                11     5      6    2709
                                             16 COMRAM    11     5      6
                              _fputc
                              _fputs
                             _strlen
 ---------------------------------------------------------------------------------
 (12) _strlen                                              4     2      2     166
                                              0 COMRAM     4     2      2
 ---------------------------------------------------------------------------------
 (12) _fputs                                               7     3      4    1235
                                              9 COMRAM     7     3      4
                              _fputc
 ---------------------------------------------------------------------------------
 (10) _fputc                                               9     5      4     834
                                              0 COMRAM     9     5      4
                              _putch
 ---------------------------------------------------------------------------------
 (11) _putch                                               1     1      0       0
 ---------------------------------------------------------------------------------
 (11) _abs                                                 4     2      2     142
                                             18 COMRAM     4     2      2
                            ___aomod (ARG)
 ---------------------------------------------------------------------------------
 (11) ___aomod                                            18     2     16     448
                                              0 COMRAM    18     2     16
 ---------------------------------------------------------------------------------
 (11) ___aodiv                                            26    10     16     452
                                              0 COMRAM    26    10     16
 ---------------------------------------------------------------------------------
 (7) _LCDPutStr                                            2     0      2     913
                                              7 COMRAM     2     0      2
                         _LCDPutChar
 ---------------------------------------------------------------------------------
 (8) _LCDPutChar                                           2     2      0     412
                                              5 COMRAM     2     2      0
                  i2_WritePort_BBSPI
 ---------------------------------------------------------------------------------
 (8) i2_WritePort_BBSPI                                    2     1      1     390
                                              3 COMRAM     2     1      1
                    i2_SendByteBBSPI
 ---------------------------------------------------------------------------------
 (9) i2_SendByteBBSPI                                      3     3      0     138
                                              0 COMRAM     3     3      0
 ---------------------------------------------------------------------------------
 (7) _check_but_RB0                                        2     0      2       0
                                              0 COMRAM     2     0      2
 ---------------------------------------------------------------------------------
 Estimated maximum stack depth 12
 ---------------------------------------------------------------------------------

 Call Graph Graphs:

 _main (ROOT)
   _LCDInit
     _InitBBSPI
     _LCDPutInst
       _WritePort_BBSPI
         _SendByteBBSPI
     _Port_BBSPIInit
       _SendByteBBSPI
     _WritePort_BBSPI
       _SendByteBBSPI
   _system_initialize
     _interrupt_initialize
     _oscillator_initialize
     _pin_manager
     _timer_0_initialize

 _function_interrupt_TMR0 (ROOT)
   _FSM
     _check_but_RB0
     _print_hum_state2
       _LCDPutStr
         _LCDPutChar
           i2_WritePort_BBSPI
             i2_SendByteBBSPI
       _sprintf
         _vfprintf
           _vfpfcnvrt
             _dtoa
               ___aodiv
               ___aomod
               _abs
                 ___aomod (ARG)
               _pad
                 _fputc
                   _putch
                 _fputs
                   _fputc
                     _putch
                 _strlen
             _fputc
               _putch
       i2_LCDPutInst
         i2_WritePort_BBSPI
           i2_SendByteBBSPI
     _print_temp_state1
       _LCDPutStr
         _LCDPutChar
           i2_WritePort_BBSPI
             i2_SendByteBBSPI
       _sprintf
         _vfprintf
           _vfpfcnvrt
             _dtoa
               ___aodiv
               ___aomod
               _abs
                 ___aomod (ARG)
               _pad
                 _fputc
                   _putch
                 _fputs
                   _fputc
                     _putch
                 _strlen
             _fputc
               _putch
       i2_LCDPutInst
         i2_WritePort_BBSPI
           i2_SendByteBBSPI
     _set_defined_hum
       _check_but_RA5
     _set_defined_temp
       _check_but_RA5
     i2_LCDPutInst
       i2_WritePort_BBSPI
         i2_SendByteBBSPI
   _operate_DHT11
     _DHT11_CheckResponse
     _DHT11_ReadData
     _DHT11_Start
   _print_DHT11
     _LCDPutChar
       i2_WritePort_BBSPI
         i2_SendByteBBSPI
     _LCDPutStr
       _LCDPutChar
         i2_WritePort_BBSPI
           i2_SendByteBBSPI
     _sprintf
       _vfprintf
         _vfpfcnvrt
           _dtoa
             ___aodiv
             ___aomod
             _abs
               ___aomod (ARG)
             _pad
               _fputc
                 _putch
               _fputs
                 _fputc
                   _putch
               _strlen
           _fputc
             _putch
     i2_LCDPutInst
       i2_WritePort_BBSPI
         i2_SendByteBBSPI

 Address spaces:
Name               Size   Autos  Total    Cost      Usage
BIGRAM             F5F      0       0      37        0.0%
EEDATA             400      0       0       0        0.0%
BITBANK14          100      0       0      33        0.0%
BANK14             100      0       0      34        0.0%
BITBANK13          100      0       0      30        0.0%
BANK13             100      0       0      31        0.0%
BITBANK12          100      0       0      28        0.0%
BANK12             100      0       0      29        0.0%
BITBANK11          100      0       0      26        0.0%
BANK11             100      0       0      27        0.0%
BITBANK10          100      0       0      24        0.0%
BANK10             100      0       0      25        0.0%
BITBANK9           100      0       0      22        0.0%
BANK9              100      0       0      23        0.0%
BITBANK8           100      0       0      20        0.0%
BANK8              100      0       0      21        0.0%
BITBANK7           100      0       0      18        0.0%
BANK7              100      0       0      19        0.0%
BITBANK6           100      0       0      16        0.0%
BANK6              100      0       0      17        0.0%
BITBANK5           100      0       0      14        0.0%
BANK5              100      0       0      15        0.0%
BITBANK4           100      0       0      12        0.0%
BANK4              100      0       0      13        0.0%
BITBANK3           100      0       0      10        0.0%
BANK3              100      0       0      11        0.0%
BITBANK2           100      0       0       8        0.0%
BANK2              100      0       0       9        0.0%
BITBANK1           100      0       0       6        0.0%
BANK1              100      0       0       7        0.0%
BITBANK0            A0      0       0       4        0.0%
BANK0               A0     1C      69       5       65.6%
BITBANK15           60      0       0      35        0.0%
BANK15              60      0       0      36        0.0%
BITCOMRAM           5E      0       0       0        0.0%
COMRAM              5E     5D      5E       1      100.0%
BITSFR               0      0       0     200        0.0%
SFR                  0      0       0     200        0.0%
STACK                0      0       0       2        0.0%
NULL                 0      0       0       0        0.0%
ABS                  0      0      C7      32        0.0%
DATA                 0      0      C7       3        0.0%
CODE                 0      0       0       0        0.0%


Microchip Technology PIC18 Macro Assembler V2.10 build 88905656 
Symbol Table                                                                                   Mon Dec 02 13:13:53 2019

                     _RH_Integral 0075                ??_print_hum_state2 005E  
                     ?_LCDPutChar 0001                                l91 2480  
                              l85 2452                                l94 2486  
                              l88 2464                                l97 2412  
                     ?_LCDPutInst 0001                   _timer0ReloadVal 00C7  
           SendByteBBSPI@bitcount 00BC                               l330 1CCA  
                             l322 1DF2                               l331 1CCC  
                             l340 23B8                               l156 243A  
                             l325 2476                               l157 243A  
                             l334 1D1C                               l328 1CB6  
                             l337 23F6                               l346 1CA6  
                             _FSM 12FC                               _abs 2216  
                             _pad 1B66                 _defined_value_arr 00A4  
                             wreg 000FE8                  ?_set_defined_hum 0001  
                ?i2_SendByteBBSPI 0001             __end_of_check_but_RB0 20FE  
           __end_of_check_but_RA5 20A4                   __end_of_LCDInit 1DF4  
                    __CFG_LVP$OFF 000000                              ?_FSM 0001  
                    __CFG_WDT$OFF 000000                              ?_abs 0013  
                            l2300 1CF8                              l2310 1D02  
                            l2302 1CFA                              l2312 1D0A  
                            l2304 1CFC                              l2400 245C  
                            l2314 1D0C                              l2306 1CFE  
                            l2402 245E                              l2410 2404  
                            l2308 1D00                              l2404 2478  
                            l2412 240C                              l2270 1CAC  
                            l2406 2482                              l2414 240E  
                            l2280 1CDA                              l2272 1CB0  
                            l2416 2410                              l2408 23F8  
                            l2520 244A                              l2290 1CEE  
                            l2282 1CE2                              l2450 1C42  
                            l2522 244E                              l2292 1CF0  
                            l2284 1CE8                              l2380 23B6  
                            l2460 1C88                              l2452 1C4E  
                            l2700 2438                              l2294 1CF2  
                            l2286 1CEA                              l2278 1CC4  
                            l2462 1C9A                              l2454 1C60  
                            l2518 2442                              l2296 1CF4  
                            l2288 1CEC                              l2376 239E  
                            l2456 1C6A                              l2448 1C30  
                            l2480 23DE                              l2640 1D94  
                            l2298 1CF6                              l2378 23A0  
                            l2458 1C7C                              l2482 23E0  
                            l2650 1DB6                              l2642 1D96  
                            l2484 23F4                              l2660 1DE6  
                            l2652 1DC2                              l2644 1DA8  
                            l2636 1D8E                              l2478 2466  
                            l2662 1DEC                              l2654 1DD4  
                            l2646 1DAA                              l2638 1D92  
                            l2398 2454                              l2656 1DDA  
                            l2648 1DB0                              l2658 1DE0  
                            l2694 242E                              ?_pad 0011  
                            l2696 2432                              l2698 2436  
                            STR_1 1001                              STR_2 1016  
                            STR_3 100C                              STR_4 1016  
                            STR_5 1016                              STR_6 1016  
                            u1340 1CC4                              u1341 1CC0  
                            u1350 1CDA                              u1351 1CD6  
                            u1360 1D1C                              _LATD 000F8C  
                            u1361 1D18                              u1807 1C90  
                            u1757 1D9E                              u1767 1DCA  
                            u1777 1C38                              u1787 1C56  
                            u1797 1C72                              _TMR0 000FD6  
                            abs@a 0013                              _dbuf 007A  
                            _main 242E                              _dtoa 101A  
                            _prec 0064                              _nout 0060  
                            pad@i 0018                              pad@p 0015  
                            fsr1h 000FE2                              fsr2h 000FDA  
                            indf1 000FE7                              indf2 000FDF  
                            fsr1l 000FE1                              pad@w 001A  
                            fsr2l 000FD9                              btemp 005F  
                ?_WritePort_BBSPI 00BE                              start 000E  
              __size_of_LCDPutStr 0062                     __CFG_IESO$OFF 000000  
                ??_DHT11_ReadData 0001                 ?_set_defined_temp 0001  
            __size_of_DHT11_Start 0020                     __CFG_MCLRE$ON 000000  
               _print_temp_state1 2256                      ___param_bank 000000  
              ??_set_defined_temp 0003                             ??_FSM 00B1  
                           ??_abs 0015                ?_print_temp_state1 0001  
                           ??_pad 0017                _timer_0_initialize 23F8  
                 __end_of___aodiv 184C                             ?_main 0001  
                           ?_dtoa 001C                   __end_of___aomod 19B0  
                           _T0CON 000FD5                             _LATC0 007C58  
                           i2l107 1A78                             i2l212 20C4  
                           i2l213 20FC                             i2l232 2214  
                           i2l224 21D4                             i2l217 206A  
                           i2l330 1D3C                             i2l218 20A2  
                           i2l331 1D3E                             i2l235 22CC  
                           i2l227 2290                             i2l340 242C  
                           i2l412 236E                             i2l421 2398  
                           i2l334 1D8C                             i2l343 1F8A  
                           i2l415 237C                             i2l431 2026  
                           i2l328 1D28                             i2l352 1FEC  
                           i2l512 1F1C                             i2l513 1F24  
                           i2l257 14FA                             i2l409 23D8  
                           i2l441 1E58                             i2l506 16C2  
                           i2l346 1EBE                             i2l418 238A  
                           i2l434 2048                             i2l426 1FF6  
                           i2l630 184A                             i2l438 236C  
                           i2l471 1BEE                             i2l473 1C2A  
                           i2l481 10C2                             i2l643 19AE  
                           i2l468 1BAC                             i2l479 10BA  
                           i2l499 12FA                      vfpfcnvrt@fmt 0042  
             ??_print_temp_state1 005E                             _TMR0H 000FD7  
                           _TMR0L 000FD6                             _TRISD 000F95  
                   __CFG_PWRT$OFF 000000                    __CFG_FCMEN$OFF 000000  
             ?_timer_0_initialize 0001           __size_of_Port_BBSPIInit 001E  
                           _flags 0066            ?_oscillator_initialize 0001  
                           _fputc 1A9C                             _fputs 2150  
                      _T_Integral 0073                             _value 009A  
                           pad@fp 0011                             _width 0062  
                           _putch 248C                             dtoa@d 001E  
                           dtoa@i 003E                             dtoa@n 0036  
                           dtoa@p 0030                             dtoa@s 0034  
                           dtoa@w 0032                    __CFG_BOREN$OFF 000000  
                           tablat 000FF5     __size_of_interrupt_initialize 0006  
             __size_of_LCDPutChar 0066               __size_of_LCDPutInst 007C  
                           ttemp5 0060                             ttemp6 0063  
                           ttemp7 0067                             status 000FD8  
                           wtemp8 0060                   __end_of_sprintf 2150  
       __end_of_print_temp_state1 2292              ??_timer_0_initialize 00BB  
                 __initialization 22CE                      __end_of_main 2442  
                    __end_of_dtoa 12FC                            ??_main 00C3  
                          ??_dtoa 0026              i2SendByteBBSPI@input 0003  
                    ?_pin_manager 0001                     __activetblptr 000003  
                       ??_LCDInit 00C2                      LCDPutChar@ch 0007  
               __end_of_LCDPutStr 1FEE                            _ADCON1 000FC1  
                          ?_fputc 0001                            ?_fputs 000A  
              __size_of_InitBBSPI 0012                      LCDPutInst@ch 00C1  
                          ?_putch 0001               _DHT11_CheckResponse 236E  
                          i2l2000 2312                            i2l2002 2316  
                          i2l2010 1B76                            i2l2100 1926  
                          i2l2004 232E                            i2l2020 1BCC  
                          i2l2012 1B8A                            i2l1221 214E  
                          i2l2110 198E                            i2l2102 1946  
                          i2l2030 2216                            i2l1206 1B64  
                          i2l1214 2192                            i2l1230 233A  
                          i2l2022 1BD0                            i2l2014 1B98  
                          i2l2200 1D64                            i2l2040 16F6  
                          i2l2104 1958                            i2l2032 2230  
                          i2l1224 248C                            i2l2024 1BFE  
                          i2l2016 1BA4                            i2l2008 1B66  
                          i2l2120 1082                            i2l2210 1D6E  
                          i2l2202 1D66                            i2l2050 1738  
                          i2l2042 16FA                            i2l2034 16C4  
                          i2l2106 195E                            i2l2026 1C12  
                          i2l2018 1BB8                            i2l2130 10DC  
                          i2l2122 1092                            i2l2114 101A  
                          i2l2220 1D7C                            i2l2212 1D70  
                          i2l2204 1D68                            i2l2060 1792  
                          i2l2052 1756                            i2l2044 1708  
                          i2l2036 16C8                            i2l2108 196E  
                          i2l2140 1106                            i2l2132 10EA  
                          i2l2124 1094                            i2l2116 103A  
                          i2l2214 1D72                            i2l2206 1D6A  
                          i2l2062 17C0                            i2l2054 175E  
                          i2l2070 17FA                            i2l2046 1728  
                          i2l2038 16D6                            i2l2150 1212  
                          i2l2142 1188                            i2l2134 10F0  
                          i2l2126 10AE                            i2l2118 1062  
                          i2l2230 1548                            i2l2222 14FC  
                          i2l1191 224C                            i2l2216 1D74  
                          i2l2208 1D6C                            i2l2320 1F42  
                          i2l2072 180A                            i2l2064 17E0  
                          i2l2056 1772                            i2l2048 172C  
                          i2l2080 1850                            i2l2160 1286  
                          i2l2152 1230                            i2l2144 118E  
                          i2l2136 10F8                            i2l2128 10CA  
                          i2l2240 1618                            i2l2232 1570  
                          i2l2224 1524                            i2l2218 1D7A  
                          i2l2330 1F80                            i2l2322 1F50  
                          i2l2074 182A                            i2l2066 17E2  
                          i2l2058 1780                            i2l2090 18B0  
                          i2l2082 185E                            i2l1194 2254  
                          i2l2170 12C2                            i2l2162 1296  
                          i2l2154 124A                            i2l2146 1194  
                          i2l2138 1100                            i2l2242 1640  
                          i2l2250 166E                            i2l2234 1598  
                          i2l2226 1532                            i2l2420 20B2  
                          i2l2324 1F5A                            i2l2316 1F28  
                          i2l2068 17F4                            i2l2092 18CE  
                          i2l2084 187E                            i2l2164 129C  
                          i2l2172 12D2                            i2l2156 1264  
                          i2l2148 11F8                            i2l2252 167C  
                          i2l2244 164E                            i2l2236 15E0  
                          i2l2228 1544                            i2l2332 1EC0  
                          i2l2340 204A                            i2l2430 20F4  
                          i2l2190 1D5A                            i2l2326 1F68  
                          i2l2318 1F38                            i2l2094 18D6  
                          i2l2086 1882                            i2l2078 184C  
                          i2l2166 12AE                            i2l2158 1274  
                          i2l2246 1662                            i2l2334 1EC8  
                          i2l2342 2058                            i2l2510 2034  
                          i2l2502 2004                            i2l2424 20D2  
                          i2l2192 1D5C                            i2l2184 1D36  
                          i2l2176 1D20                            i2l2264 2416  
                          i2l2328 1F72                            i2l2360 1FB6  
                          i2l2096 18EA                            i2l2088 1890  
                          i2l2168 12BA                            i2l2256 1688  
                          i2l2336 1ED6                            i2l2440 2256  
                          i2l2352 209A                            i2l2600 13F2  
                          i2l2512 2036                            i2l2504 200A  
                          i2l2426 20E4                            i2l2418 20A4  
                          i2l2194 1D5E                            i2l2186 1D4C  
                          i2l2178 1D24                            i2l2266 2418  
                          i2l2362 1FBA                            i2l2098 18F8  
                          i2l2258 16B0                            i2l2338 1EFC  
                          i2l2370 2120                            i2l2442 225C  
                          i2l2346 2078                            i2l2434 2194  
                          i2l2610 143C                            i2l2602 13FA  
                          i2l2514 2046                            i2l2506 2018  
                          i2l2530 234C                            i2l2196 1D60  
                          i2l2188 1D54                            i2l2268 242A  
                          i2l2356 1F8C                            i2l2372 213C  
                          i2l2364 20FE                            i2l2444 2268  
                          i2l2348 208A                            i2l2436 21AA  
                          i2l2620 147A                            i2l2612 144C  
                          i2l2604 13FE                            i2l2508 2020  
                          i2l2532 2354                            i2l2524 233C  
                          i2l2198 1D62                            i2l2358 1F90  
                          i2l2366 2110                            i2l2390 1E8E  
                          i2l2382 1E5C                            i2l2470 2292  
                          i2l2446 2284                            i2l2438 21CC  
                          i2l2622 1496                            i2l2614 1450  
                          i2l2606 140A                            i2l2534 235C  
                          i2l2526 2340                            i2l2550 1E26  
                          i2l2542 1DF4                            i2l2368 2118  
                          i2l2392 1E9C                            i2l2384 1E6C  
                          i2l2472 2298                            i2l2464 21D6  
                          i2l2624 149E                            i2l2616 145C  
                          i2l2608 1420                            i2l2560 1306  
                          i2l2536 2364                            i2l2528 2344  
                          i2l2552 1E40                            i2l2544 1E0E  
                          i2l2394 1EA6                            i2l2386 1E76  
                          i2l2474 22A4                            i2l2466 21EC  
                          i2l2618 1472                            i2l2570 1330  
                          i2l2562 130A                            i2l2490 23CC  
                          i2l2554 1E46                            i2l2546 1E14  
                          i2l2396 1EB4                            i2l2388 1E84  
                          i2l2476 22C0                            i2l2468 220C  
                          i2l2732 14BC                            i2l2580 135C  
                          i2l2572 1346                            i2l2564 1320  
                          i2l2628 14A6                            i2l2556 12FC  
                          i2l2492 23D6                            i2l2548 1E20  
                          i2l2590 1390                            i2l2582 1372  
                          i2l2574 134A                            i2l2566 1328  
                          i2l2558 1300                            i2l2494 236E  
                          i2l2486 23BA                            i2l2670 19F0  
                          i2l2592 13A8                            i2l2584 1376  
                          i2l2576 1354                            i2l2568 132C  
                          i2l2496 1FEE                            i2l2488 23BE  
                          i2l2680 1A1E                            i2l2672 19F6  
                          i2l2664 19D2                            i2l2594 13B8  
                          i2l2586 1380                            i2l2578 1358  
                          i2l2690 1A6A                            i2l2682 1A30  
                          i2l2674 19FA                            i2l2666 19E0  
                          i2l1980 1AC0                            i2l2596 13CE  
                          i2l2588 1384                            i2l2684 1A42  
                          i2l2692 1A74                            i2l2676 1A06  
                          i2l2668 19EE                            i2l1982 1ACA  
                          i2l1990 2150                            i2l2598 13D6  
                          i2l2686 1A54                            i2l2678 1A1A  
                          i2l1984 1AE8                            i2l1976 1A9C  
                          i2l1992 215C                            i2l2688 1A66  
                          i2l1986 1B1E                            i2l1978 1AAE  
                          i2l1994 216E                            i2l1996 2172  
                          i2l1998 2306                            _OSCCON 000FD3  
                    LCDPutStr@ptr 0008                            _MY_FSM 0077  
                  __CFG_XINST$OFF 000000                      vfprintf@cfmt 0056  
                       ??___aodiv 0011                         ??___aomod 0011  
            ?_DHT11_CheckResponse 0001           i2SendByteBBSPI@bitcount 0002  
                   ?i2_LCDPutInst 0001                            clear_0 22F4  
                          pad@buf 0013                            dtoa@fp 001C  
                          _strlen 2306                            fputc@c 0001  
                          fputs@c 000E                            fputs@i 000F  
           __end_of_operate_DHT11 236E                            fputs@s 000A  
          Port_BBSPIInit@port_dir 00BE                      ?_print_DHT11 0001  
                    __mediumconst 0000                            tblptrh 000FF7  
                          tblptrl 000FF6                            tblptru 000FF8  
                          putch@c 0001                  __end_of_vfprintf 1F26  
                       ??_sprintf 005E                        __accesstop 0060  
         __end_of__initialization 22FC                     ___rparam_used 000001  
      __size_of_print_temp_state1 003C            __size_of_SendByteBBSPI 0076  
                  __pcstackCOMRAM 0001                      __pidataBANK0 2488  
           ??_DHT11_CheckResponse 0001                 __end_of_InitBBSPI 2478  
                   __end_of_fputc 1B66                      ??_LCDPutChar 0006  
                  ??i2_LCDPutInst 0006                     __end_of_fputs 2194  
                    ??_LCDPutInst 00C0                     __end_of_putch 248E  
                    _defined_temp 00C5          ?_function_interrupt_TMR0 0001  
       __size_of_print_hum_state2 003C                    _Port_BBSPIInit 23DA  
                         ??_fputc 0005                           ??_fputs 000E  
                         ??_putch 0001                        __pbssBANK0 0060  
           i2SendByteBBSPI@output 0001                     _current_state 005E  
              __end_of_LCDPutChar 1F8C                __end_of_LCDPutInst 1CA8  
       i2WritePort_BBSPI@port_add 0005                  _timeout_heatpump 006A  
                         ?_strlen 0001            __end_of_Port_BBSPIInit 23F8  
                         _LCDInit 1D8E         __size_of_set_defined_temp 0042  
                   _SendByteBBSPI 1CA8           ??_oscillator_initialize 00BB  
            __size_of_pin_manager 0012                __size_of_vfpfcnvrt 01C8  
                         _OSCTUNE 000F9B                           i2u90_40 1AE8  
                         i2u90_41 1AE4                           i2u91_40 1B1E  
                         i2u91_41 1B1A                           i2u92_40 2192  
                         i2u92_41 218E                           i2u93_40 232E  
                         i2u93_41 232A                           i2u94_40 1B76  
                         i2u94_41 1B72                           i2u95_40 1B98  
                         i2u95_41 1B94                           i2u88_40 1AAE  
                         i2u96_40 1BEE                           i2u88_41 1AAA  
                         i2u96_41 1BEA                           i2u89_40 1AC0  
                         i2u97_40 1BFE                           i2u89_41 1ABC  
                         i2u97_41 1BFA                           i2u98_40 2230  
                         i2u98_41 222C                           i2u99_40 16D6  
                         i2u99_41 16D2                  WritePort_BBSPI@a 00BE  
        __size_of_set_defined_hum 0040                    i2LCDPutInst@ch 0007  
        __size_ofi2_SendByteBBSPI 0070                     ??_DHT11_Start 0001  
                 _time_out_heater 006E                           __Hparam 0000  
                         __Lparam 0000                           ___aodiv 16C4  
                         ___aomod 184C                         ?_vfprintf 0050  
          __size_of_check_but_RB0 005A            __size_of_check_but_RA5 005A  
        __size_of_WritePort_BBSPI 0020      __end_of_interrupt_initialize 2488  
                    __psmallconst 1000                           __pcinit 22CE  
                         __ramtop 1000                           __ptext0 242E  
                         __ptext1 2442                           __ptext2 23F8  
                         __ptext3 2454                           __ptext4 2478  
                         __ptext5 2482                           __ptext6 1D8E  
                         __ptext7 23DA                           __ptext8 1C2C  
                         __ptext9 239A                         _T0CONbits 000FD5  
                    __size_of_FSM 0200                   __size_of_strlen 0036  
                  ?_SendByteBBSPI 0001                   ?_Port_BBSPIInit 0001  
                    __size_of_abs 0040                      __size_of_pad 00C6  
            __size_of_print_DHT11 0066                           _sprintf 20FE  
                       _LCDPutStr 1F8C                    __pintcode_body 19B0  
            end_of_initialization 22FC              __end_ofi2_LCDPutInst 1EC0  
                         fputc@fp 0003                           int_func 19B0  
                         fputs@fp 000C       __size_of_timer_0_initialize 001C  
               __end_of_vfpfcnvrt 16C4               __end_of_DHT11_Start 23DA  
                         postdec1 000FE5                           postdec2 000FDD  
                         postinc0 000FEE                           postinc1 000FE6  
                         postinc2 000FDE                        ??_vfprintf 0056  
               i2_WritePort_BBSPI 2414                           strlen@a 0003  
                         strlen@s 0001                         _PORTAbits 000F80  
                       _PORTBbits 000F81                         _PORTCbits 000F82  
         __size_of_DHT11_ReadData 005C                ?i2_WritePort_BBSPI 0004  
                _print_hum_state2 2292                         _TRISAbits 000F92  
                       _TRISBbits 000F93                         _TRISCbits 000F94  
                       _TRISFbits 000F97               ??i2_WritePort_BBSPI 0005  
                      ?_LCDPutStr 0008            DHT11_ReadData@data_dht 0002  
                   _check_but_RB0 20A4                     _check_but_RA5 204A  
             SendByteBBSPI@output 00BB                 ??_set_defined_hum 0003  
               ??i2_SendByteBBSPI 0001         __end_ofi2_WritePort_BBSPI 242E  
                       _T_Decimal 0074                       vfpfcnvrt@ap 0044  
                     vfpfcnvrt@fp 0040                       vfpfcnvrt@ll 0048  
                 ??_SendByteBBSPI 00BB                         _InitBBSPI 2466  
                _set_defined_temp 2194                    __end_of_strlen 233C  
               ??_WritePort_BBSPI 00BF               start_initialization 22CE  
                     __end_of_FSM 14FC                       __end_of_abs 2256  
                     __end_of_pad 1C2C                    ?_check_but_RB0 0001  
                  ?_check_but_RA5 0001  __size_of_function_interrupt_TMR0 1A94  
            _interrupt_initialize 2482                  __CFG_OSC$INTIO67 000000  
                     _DHT11_Start 23BA       __end_of_DHT11_CheckResponse 239A  
          __size_of_operate_DHT11 0032                       vfprintf@fmt 0052  
                     __pdataBANK0 00C3                          ??_strlen 0003  
                      ?_InitBBSPI 0001                          ?_LCDInit 0001  
                     __pbssCOMRAM 005E                     __pcstackBANK0 00A7  
                ___aodiv@dividend 0001             __size_ofi2_LCDPutInst 0066  
  __size_of_oscillator_initialize 000A     __end_of_oscillator_initialize 2482  
                     ??_LCDPutStr 000A                       _defined_hum 00C3  
           ?_interrupt_initialize 0001                         __pnvBANK0 00C7  
                       _dtoa$1270 002E                         __pintcode 0008  
      __size_ofi2_WritePort_BBSPI 001A                          ?___aodiv 0001  
                        ?___aomod 0001                  ___aodiv@quotient 0013  
                ??_Port_BBSPIInit 00BE                      i2_LCDPutInst 1E5A  
                  _DHT11_ReadData 1FEE                 __size_of_vfprintf 0066  
                   ??_pin_manager 00BB                       __smallconst 1000  
                   _operate_DHT11 233C                   ??_check_but_RB0 0003  
                 ??_check_but_RA5 0003                          ?_sprintf 0058  
                  __size_of_fputc 00CA                    __size_of_fputs 0044  
                  __size_of_putch 0002                          _LATAbits 000F89  
                        _LATCbits 000F8B                          _LATFbits 000F8E  
        __end_of_print_hum_state2 22CE                          i2u100_40 1708  
                        i2u100_41 1704                          i2u101_41 1732  
                        i2u102_40 1756                          i2u110_40 1926  
                        i2u102_41 1752                          i2u110_41 1922  
                        i2u103_40 1780                          i2u111_40 196E  
                        i2u103_41 177C                          i2u111_41 196A  
                        i2u104_40 17C0                          i2u120_40 1230  
                        i2u112_40 104A                          i2u104_41 17BC  
                        i2u120_41 122C                          i2u112_41 1044  
                        i2u105_40 180A                          i2u121_40 124A  
                        i2u113_40 104C                          i2u105_41 1806  
                        i2u121_41 1246                          i2u106_40 185E  
                        i2u122_40 1264                          i2u114_40 1062  
                        i2u130_40 1524                          i2u106_41 185A  
                        i2u122_41 1260                          i2u114_41 105E  
                        i2u130_41 1520                          i2u107_40 1890  
                        i2u123_40 1274                          i2u115_40 1092  
                        i2u131_40 1570                          i2u107_41 188C  
                        i2u123_41 1270                          i2u115_41 108E  
                        i2u131_41 156C                          i2u108_40 18CE  
                        i2u124_40 1286                          i2u116_40 10AE  
                        i2u132_40 1598                          i2u140_40 208A  
                        i2u108_41 18CA                          i2u124_41 1282  
                        i2u116_41 10AA                          i2u132_41 1594  
                        i2u140_41 2086                          i2u141_40 1FB2  
                        i2u109_40 18F8                          i2u125_40 1296  
                        i2u117_40 10DC                          i2u133_40 1640  
                        i2u109_41 18F4                          i2u125_41 1292  
                        i2u117_41 10D8                          i2u133_41 163C  
                        i2u141_47 1FA8                          i2u142_40 1FDC  
                        i2u126_40 12AE                          i2u118_40 10EA  
                        i2u150_40 220C                          i2u126_41 12AA  
                        i2u118_41 10E6                          i2u150_41 2208  
                        i2u142_47 1FD2                          i2u127_40 1D36  
                        i2u143_40 1FEC                          i2u119_40 1212  
                        i2u151_40 237C                          i2u127_41 1D32  
                        i2u143_41 1FE8                          i2u119_41 120E  
                        i2u151_41 2378                          i2u144_40 20B2  
                        i2u128_40 1D4C                          i2u160_40 1372  
                        i2u152_40 238A                          i2u144_41 20AE  
                        i2u128_41 1D48                          i2u160_41 136E  
                        i2u152_41 2386                          i2u145_40 20D2  
                        i2u129_40 1D8C                          i2u137_40 1F1C  
                        i2u161_40 13A8                          i2u153_40 2398  
                        i2u145_41 20CE                          i2u129_41 1D88  
                        i2u137_41 1F18                          i2u161_41 13A4  
                        i2u153_41 2394                          i2u146_40 20E4  
                        i2u138_40 2058                          i2u162_40 13CE  
                        i2u154_40 2004                          i2u170_40 1A1A  
                        i2u146_41 20E0                          i2u138_41 2054  
                        i2u162_41 13CA                          i2u154_41 2000  
                        i2u170_41 1A16                          i2u139_40 2078  
                        i2u147_40 21AA                          i2u163_40 13F2  
                        i2u155_40 2018                          i2u171_40 1A30  
                        i2u139_41 2074                          i2u147_41 21A6  
                        i2u163_41 13EE                          i2u155_41 2014  
                        i2u171_41 1A2C                          i2u148_40 21CC  
                        i2u164_40 1420                          i2u156_40 2034  
                        i2u172_40 1A42                          i2u148_41 21C8  
                        i2u164_41 141C                          i2u156_41 2030  
                        i2u172_41 1A3E                          i2u149_40 21EC  
                        i2u165_40 143C                          i2u157_40 2046  
                        i2u173_40 1A54                          i2u149_41 21E8  
                        i2u165_41 1438                          i2u157_41 2042  
                        i2u173_41 1A50                          i2u181_47 23C4  
                        i2u166_40 1472                          i2u158_40 1320  
                        i2u174_40 1A66                          i2u166_41 146E  
                        i2u158_41 131C                          i2u174_41 1A62  
                        i2u190_47 1F60                          i2u182_47 23D0  
                        i2u167_40 1496                          i2u159_40 1346  
                        i2u167_41 1492                          i2u159_41 1342  
              i2WritePort_BBSPI@a 0004                          i2u191_47 1F78  
                        i2u183_47 2006                          i2u168_40 19E0  
                        i2u168_41 19DC                          i2u184_47 1E62  
                        i2u169_40 19EE                          i2u169_41 19EA  
                        i2u185_47 1E7C                          i2u186_47 1E94  
                        i2u187_47 1EAC                          i2u188_47 1F2E  
                        i2u189_47 1F48                          _RCONbits 000FD0  
          __end_of_DHT11_ReadData 204A                         _vfpfcnvrt 14FC  
                     ??_InitBBSPI 00BB                SendByteBBSPI@input 00BD  
                  ?_operate_DHT11 0001                     ??_print_DHT11 005E  
                        _Checksum 0072                  __size_of_LCDInit 0066  
               _system_initialize 2442               __end_of_pin_manager 2466  
                     _count_1_sec 0068                       _count_2_sec 0070  
         _function_interrupt_TMR0 0008            ??_interrupt_initialize 00BB  
                     _INTCON2bits 000FF1                         copy_data0 22E2  
                 _set_defined_hum 21D6                ?_system_initialize 0001  
                 i2_SendByteBBSPI 1D1E        __end_of_timer_0_initialize 2414  
        __end_of_set_defined_temp 21D6               ??_system_initialize 00BB  
                        __Hrparam 0000                        vfprintf@ap 0054  
                        __Lrparam 0000                        vfprintf@fp 0050  
                 _WritePort_BBSPI 239A                   ?_DHT11_ReadData 0001  
                __size_of___aodiv 0188                  __size_of___aomod 0164  
                      ?_vfpfcnvrt 0040                   DHT11_ReadData@i 0001  
                 ___aodiv@divisor 0009                   ___aodiv@counter 0011  
                      sprintf@fmt 005A         __end_of_system_initialize 2454  
                        _flag_RB0 0079                          _flag_RA5 0078  
                        __ptext10 1CA8                          __ptext11 2466  
                        __ptext20 21D6                          __ptext21 204A  
                        __ptext13 1DF4                          __ptext30 2306  
                        __ptext22 2256                          __ptext14 233C  
                        __ptext31 2150                          __ptext23 2292  
                        __ptext15 23BA                          __ptext40 1D1E  
                        __ptext32 1A9C                          __ptext24 1E5A  
                        __ptext16 1FEE                          __ptext41 20A4  
                        __ptext33 248C                          __ptext25 20FE  
                        __ptext17 236E                          __ptext34 2216  
                        __ptext26 1EC0                          __ptext18 12FC  
                        __ptext35 184C                          __ptext27 14FC  
                        __ptext19 2194                          __ptext36 16C4  
                        __ptext28 101A                          __ptext37 1F8C  
                        __ptext29 1B66                          __ptext38 1F26  
                        __ptext39 2414                  __size_of_sprintf 0052  
             __end_of_print_DHT11 1E5A                     _time_out_fan1 006C  
                   __size_of_main 0014                     __size_of_dtoa 02E2  
                    ?_DHT11_Start 0001                          int$flags 005F  
                        _vfprintf 1EC0                        _LCDPutChar 1F26  
                      _LCDPutInst 1C2C                   ??_operate_DHT11 0003  
                ___aomod@dividend 0001                       _pin_manager 2454  
           __end_of_SendByteBBSPI 1D1E                        _INTCONbits 000FF2  
         __end_of_set_defined_hum 2216         ??_function_interrupt_TMR0 00B3  
         __end_ofi2_SendByteBBSPI 1D8E                          intlevel2 0000  
                       sprintf@ap 00A9           __end_of_WritePort_BBSPI 23BA  
    __size_of_DHT11_CheckResponse 002C                   ___aomod@divisor 0009  
                     ??_vfpfcnvrt 0046                   ___aomod@counter 0011  
                        sprintf@f 00AB                          sprintf@s 0058  
         WritePort_BBSPI@port_add 00BF        __size_of_system_initialize 0012  
                     _print_DHT11 1DF4                      ___aodiv@sign 0012  
           _oscillator_initialize 2478                        _RH_Decimal 0076  
                    ___aomod@sign 0012   __end_of_function_interrupt_TMR0 1A9C  
               ?_print_hum_state2 0001  
